Certificate:
    Data:
        Version: 3 (0x2)
        Serial Number: 268435675 (0x100000db)
    Signature Algorithm: sha256WithRSAEncryption
        Issuer: C=DE, ST=Hessen, O=privacyidea, CN=CA001
        Validity
            Not Before: Sep  7 13:40:01 2017 GMT
            Not After : Sep  7 13:40:01 2018 GMT
        Subject: C=DE, ST=Hessen, O=privacyidea, CN=requester.localdomain
        Subject Public Key Info:
            Public Key Algorithm: rsaEncryption
                Public-Key: (2048 bit)
                Modulus:
                    00:cd:be:14:4f:fa:ce:01:3f:42:22:1b:1d:9c:af:
                    dd:92:d2:7f:db:6c:b7:3e:39:43:43:6b:13:03:f1:
                    05:f4:07:74:bc:76:69:28:0b:af:19:8e:d7:fc:e3:
                    cd:c6:58:f2:ca:7f:08:6d:53:fc:07:02:44:24:c6:
                    b4:34:4c:8c:04:fe:33:0e:40:e2:20:ba:02:73:5a:
                    f7:f5:4f:63:6e:cc:c6:b6:df:54:1d:37:39:7d:51:
                    36:26:5f:bd:dc:3f:a8:8b:6b:a2:ae:b6:9d:d6:21:
                    e7:df:41:b8:7a:28:2a:68:48:ca:a8:2d:ed:e1:e9:
                    46:5e:5a:72:6d:b4:84:38:87:91:fd:94:11:0b:28:
                    84:c6:c2:2f:2a:fb:01:f9:36:7a:09:75:d1:33:88:
                    3c:73:41:5b:c8:bf:94:89:70:a1:f0:c0:b9:2e:50:
                    53:1e:b1:17:64:69:f4:2d:81:e0:a9:0d:0e:32:e9:
                    ba:55:8a:85:f1:1b:6f:49:79:b4:7f:88:c3:0d:3e:
                    54:88:9b:3d:1f:38:8c:04:f3:ee:6a:63:2b:f5:c6:
                    db:b4:83:aa:c4:78:41:3a:7d:4b:e1:c8:3e:71:ca:
                    1b:61:59:ea:c6:c4:ca:32:5e:c9:e9:bf:12:29:e6:
                    c6:c3:63:fe:a0:55:da:7a:f1:60:98:4d:26:ed:fa:
                    70:2d
                Exponent: 65537 (0x10001)
        X509v3 extensions:
            X509v3 Key Usage: 
                Digital Signature, Key Encipherment
            X509v3 Basic Constraints: 
                CA:FALSE
            Netscape Cert Type: 
                SSL Server
            Netscape Comment: 
                OpenSSL Generated Server Certificate
            X509v3 Subject Key Identifier: 
                53:3F:ED:5D:09:07:B3:65:7B:AB:45:C9:24:5B:09:77:80:0A:96:ED
            X509v3 Authority Key Identifier: 
                keyid:F4:A7:C0:CC:91:46:AF:64:F3:91:F2:27:F8:C8:B2:6F:8A:87:32:73
                DirName:/C=DE/ST=Hessen/O=privacyidea/CN=CA001
                serial:FB:C8:EB:AC:83:CD:12:07

            X509v3 Extended Key Usage: 
                TLS Web Server Authentication
    Signature Algorithm: sha256WithRSAEncryption
         93:86:0b:5e:97:22:f9:00:2b:1c:0e:85:b5:3a:ec:8e:be:64:
         b7:b4:fc:05:8f:67:b0:66:a1:80:e5:88:b9:e4:d3:96:65:ce:
         99:17:81:6e:d3:ec:3d:b7:76:59:1d:2e:d2:71:4b:72:c3:be:
         5f:42:df:16:70:7c:94:0c:5b:1a:75:25:f2:74:64:06:9a:6c:
         50:9e:e5:3b:70:6f:c4:81:23:a6:f8:4c:47:48:0a:5f:66:25:
         e1:79:9d:5e:c7:b2:6e:02:08:34:de:fc:a7:12:05:ee:b9:8b:
         b9:1c:02:a5:e6:b1:9f:18:b6:31:2e:25:29:c5:2f:4a:bd:40:
         84:1d:e3:a5:57:3f:a1:0b:f9:eb:ef:22:13:2c:95:f9:d6:4f:
         28:09:a1:16:14:80:2b:53:8b:f8:8d:95:81:30:f7:49:93:75:
         8e:0f:76:1c:5f:b5:ce:7c:df:29:de:3f:da:32:58:d2:8e:81:
         42:d3:1a:65:51:e3:e9:e7:88:7c:c9:d2:cb:56:43:14:4a:6c:
         3a:87:34:f8:5d:16:1f:71:6b:59:f9:34:c7:72:82:e5:fd:99:
         de:66:85:68:9c:db:d5:fc:2a:cc:c0:a8:81:c5:85:87:6f:59:
         da:94:31:7e:0f:f8:78:8a:5b:93:db:09:90:89:d7:70:69:49:
         0a:16:e4:77
-----BEGIN CERTIFICATE-----
MIIEJjCCAw6gAwIBAgIEEAAA2zANBgkqhkiG9w0BAQsFADBEMQswCQYDVQQGEwJE
RTEPMA0GA1UECAwGSGVzc2VuMRQwEgYDVQQKDAtwcml2YWN5aWRlYTEOMAwGA1UE
AwwFQ0EwMDEwHhcNMTcwOTA3MTM0MDAxWhcNMTgwOTA3MTM0MDAxWjBUMQswCQYD
VQQGEwJERTEPMA0GA1UECAwGSGVzc2VuMRQwEgYDVQQKDAtwcml2YWN5aWRlYTEe
MBwGA1UEAwwVcmVxdWVzdGVyLmxvY2FsZG9tYWluMIIBIjANBgkqhkiG9w0BAQEF
AAOCAQ8AMIIBCgKCAQEAzb4UT/rOAT9CIhsdnK/dktJ/22y3PjlDQ2sTA/EF9Ad0
vHZpKAuvGY7X/OPNxljyyn8IbVP8BwJEJMa0NEyMBP4zDkDiILoCc1r39U9jbszG
tt9UHTc5fVE2Jl+93D+oi2uirrad1iHn30G4eigqaEjKqC3t4elGXlpybbSEOIeR
/ZQRCyiExsIvKvsB+TZ6CXXRM4g8c0FbyL+UiXCh8MC5LlBTHrEXZGn0LYHgqQ0O
Mum6VYqF8RtvSXm0f4jDDT5UiJs9HziMBPPuamMr9cbbtIOqxHhBOn1L4cg+ccob
YVnqxsTKMl7J6b8SKebGw2P+oFXaevFgmE0m7fpwLQIDAQABo4IBDjCCAQowCwYD
VR0PBAQDAgWgMAkGA1UdEwQCMAAwEQYJYIZIAYb4QgEBBAQDAgZAMDMGCWCGSAGG
+EIBDQQmFiRPcGVuU1NMIEdlbmVyYXRlZCBTZXJ2ZXIgQ2VydGlmaWNhdGUwHQYD
VR0OBBYEFFM/7V0JB7Nle6tFySRbCXeACpbtMHQGA1UdIwRtMGuAFPSnwMyRRq9k
85HyJ/jIsm+KhzJzoUikRjBEMQswCQYDVQQGEwJERTEPMA0GA1UECAwGSGVzc2Vu
MRQwEgYDVQQKDAtwcml2YWN5aWRlYTEOMAwGA1UEAwwFQ0EwMDGCCQD7yOusg80S
BzATBgNVHSUEDDAKBggrBgEFBQcDATANBgkqhkiG9w0BAQsFAAOCAQEAk4YLXpci
+QArHA6FtTrsjr5kt7T8BY9nsGahgOWIueTTlmXOmReBbtPsPbd2WR0u0nFLcsO+
X0LfFnB8lAxbGnUl8nRkBppsUJ7lO3BvxIEjpvhMR0gKX2Yl4XmdXseybgIINN78
pxIF7rmLuRwCpeaxnxi2MS4lKcUvSr1AhB3jpVc/oQv56+8iEyyV+dZPKAmhFhSA
K1OL+I2VgTD3SZN1jg92HF+1znzfKd4/2jJY0o6BQtMaZVHj6eeIfMnSy1ZDFEps
Ooc0+F0WH3FrWfk0x3KC5f2Z3maFaJzb1fwqzMCogcWFh29Z2pQxfg/4eIpbk9sJ
kInXcGlJChbkdw==
-----END CERTIFICATE-----
