Certificate:
    Data:
        Version: 3 (0x2)
        Serial Number: 268435676 (0x100000dc)
    Signature Algorithm: sha256WithRSAEncryption
        Issuer: C=DE, ST=Hessen, O=privacyidea, CN=CA001
        Validity
            Not Before: Sep  7 13:42:10 2017 GMT
            Not After : Sep  7 13:42:10 2018 GMT
        Subject: C=DE, ST=Hessen, O=privacyidea, CN=requester.localdomain
        Subject Public Key Info:
            Public Key Algorithm: rsaEncryption
                Public-Key: (2048 bit)
                Modulus:
                    00:cd:be:14:4f:fa:ce:01:3f:42:22:1b:1d:9c:af:
                    dd:92:d2:7f:db:6c:b7:3e:39:43:43:6b:13:03:f1:
                    05:f4:07:74:bc:76:69:28:0b:af:19:8e:d7:fc:e3:
                    cd:c6:58:f2:ca:7f:08:6d:53:fc:07:02:44:24:c6:
                    b4:34:4c:8c:04:fe:33:0e:40:e2:20:ba:02:73:5a:
                    f7:f5:4f:63:6e:cc:c6:b6:df:54:1d:37:39:7d:51:
                    36:26:5f:bd:dc:3f:a8:8b:6b:a2:ae:b6:9d:d6:21:
                    e7:df:41:b8:7a:28:2a:68:48:ca:a8:2d:ed:e1:e9:
                    46:5e:5a:72:6d:b4:84:38:87:91:fd:94:11:0b:28:
                    84:c6:c2:2f:2a:fb:01:f9:36:7a:09:75:d1:33:88:
                    3c:73:41:5b:c8:bf:94:89:70:a1:f0:c0:b9:2e:50:
                    53:1e:b1:17:64:69:f4:2d:81:e0:a9:0d:0e:32:e9:
                    ba:55:8a:85:f1:1b:6f:49:79:b4:7f:88:c3:0d:3e:
                    54:88:9b:3d:1f:38:8c:04:f3:ee:6a:63:2b:f5:c6:
                    db:b4:83:aa:c4:78:41:3a:7d:4b:e1:c8:3e:71:ca:
                    1b:61:59:ea:c6:c4:ca:32:5e:c9:e9:bf:12:29:e6:
                    c6:c3:63:fe:a0:55:da:7a:f1:60:98:4d:26:ed:fa:
                    70:2d
                Exponent: 65537 (0x10001)
        X509v3 extensions:
            X509v3 Key Usage: 
                Digital Signature, Key Encipherment
            X509v3 Basic Constraints: 
                CA:FALSE
            Netscape Cert Type: 
                SSL Server
            Netscape Comment: 
                OpenSSL Generated Server Certificate
            X509v3 Subject Key Identifier: 
                53:3F:ED:5D:09:07:B3:65:7B:AB:45:C9:24:5B:09:77:80:0A:96:ED
            X509v3 Authority Key Identifier: 
                keyid:F4:A7:C0:CC:91:46:AF:64:F3:91:F2:27:F8:C8:B2:6F:8A:87:32:73
                DirName:/C=DE/ST=Hessen/O=privacyidea/CN=CA001
                serial:FB:C8:EB:AC:83:CD:12:07

            X509v3 Extended Key Usage: 
                TLS Web Server Authentication
    Signature Algorithm: sha256WithRSAEncryption
         67:97:a9:c3:aa:d1:6a:a4:08:d0:6c:17:e3:20:a3:1b:56:08:
         a7:39:46:f0:6c:af:d7:55:4c:f8:80:43:69:46:0f:f3:a4:0a:
         ce:be:3d:72:94:97:b4:34:9f:24:a9:85:51:26:b9:a6:46:dd:
         e1:1f:f9:46:fb:1c:67:f6:b7:b5:3c:3b:1c:c6:64:c7:5e:06:
         3c:00:c8:6c:ab:5b:8f:bb:80:9e:90:a7:72:0b:44:1a:36:07:
         4b:3b:f4:76:21:89:69:7c:70:c8:6b:8e:2e:66:53:c1:06:ea:
         2b:f9:75:e1:b0:0e:db:7d:a4:e6:13:5d:ab:ca:6b:37:61:93:
         29:d8:98:a7:7f:f0:fc:d8:c5:0d:be:e7:5a:f1:06:1f:a9:9a:
         e9:eb:bd:54:1f:af:9f:bd:45:64:2d:1a:68:b6:62:bb:30:4a:
         d7:c3:63:ad:ad:40:ae:93:cf:72:9f:ea:fa:ce:ae:8a:49:b1:
         01:6d:0a:4e:09:a0:31:68:92:3a:0e:7d:b0:39:9e:c1:43:63:
         0b:b9:58:5a:29:9b:e6:b8:89:d2:71:0b:6c:f7:f3:15:e2:a1:
         c9:b9:f9:bc:14:ec:6a:54:f3:b7:23:b3:e5:33:eb:1e:d6:6d:
         6f:9b:94:6d:1a:59:f7:01:5d:e0:34:2d:bc:b6:b8:fa:36:18:
         9a:c5:ca:00
-----BEGIN CERTIFICATE-----
MIIEJjCCAw6gAwIBAgIEEAAA3DANBgkqhkiG9w0BAQsFADBEMQswCQYDVQQGEwJE
RTEPMA0GA1UECAwGSGVzc2VuMRQwEgYDVQQKDAtwcml2YWN5aWRlYTEOMAwGA1UE
AwwFQ0EwMDEwHhcNMTcwOTA3MTM0MjEwWhcNMTgwOTA3MTM0MjEwWjBUMQswCQYD
VQQGEwJERTEPMA0GA1UECAwGSGVzc2VuMRQwEgYDVQQKDAtwcml2YWN5aWRlYTEe
MBwGA1UEAwwVcmVxdWVzdGVyLmxvY2FsZG9tYWluMIIBIjANBgkqhkiG9w0BAQEF
AAOCAQ8AMIIBCgKCAQEAzb4UT/rOAT9CIhsdnK/dktJ/22y3PjlDQ2sTA/EF9Ad0
vHZpKAuvGY7X/OPNxljyyn8IbVP8BwJEJMa0NEyMBP4zDkDiILoCc1r39U9jbszG
tt9UHTc5fVE2Jl+93D+oi2uirrad1iHn30G4eigqaEjKqC3t4elGXlpybbSEOIeR
/ZQRCyiExsIvKvsB+TZ6CXXRM4g8c0FbyL+UiXCh8MC5LlBTHrEXZGn0LYHgqQ0O
Mum6VYqF8RtvSXm0f4jDDT5UiJs9HziMBPPuamMr9cbbtIOqxHhBOn1L4cg+ccob
YVnqxsTKMl7J6b8SKebGw2P+oFXaevFgmE0m7fpwLQIDAQABo4IBDjCCAQowCwYD
VR0PBAQDAgWgMAkGA1UdEwQCMAAwEQYJYIZIAYb4QgEBBAQDAgZAMDMGCWCGSAGG
+EIBDQQmFiRPcGVuU1NMIEdlbmVyYXRlZCBTZXJ2ZXIgQ2VydGlmaWNhdGUwHQYD
VR0OBBYEFFM/7V0JB7Nle6tFySRbCXeACpbtMHQGA1UdIwRtMGuAFPSnwMyRRq9k
85HyJ/jIsm+KhzJzoUikRjBEMQswCQYDVQQGEwJERTEPMA0GA1UECAwGSGVzc2Vu
MRQwEgYDVQQKDAtwcml2YWN5aWRlYTEOMAwGA1UEAwwFQ0EwMDGCCQD7yOusg80S
BzATBgNVHSUEDDAKBggrBgEFBQcDATANBgkqhkiG9w0BAQsFAAOCAQEAZ5epw6rR
aqQI0GwX4yCjG1YIpzlG8Gyv11VM+IBDaUYP86QKzr49cpSXtDSfJKmFUSa5pkbd
4R/5RvscZ/a3tTw7HMZkx14GPADIbKtbj7uAnpCncgtEGjYHSzv0diGJaXxwyGuO
LmZTwQbqK/l14bAO232k5hNdq8prN2GTKdiYp3/w/NjFDb7nWvEGH6ma6eu9VB+v
n71FZC0aaLZiuzBK18Njra1ArpPPcp/q+s6uikmxAW0KTgmgMWiSOg59sDmewUNj
C7lYWimb5riJ0nELbPfzFeKhybn5vBTsalTztyOz5TPrHtZtb5uUbRpZ9wFd4DQt
vLa4+jYYmsXKAA==
-----END CERTIFICATE-----
