Certificate:
    Data:
        Version: 3 (0x2)
        Serial Number: 268435677 (0x100000dd)
    Signature Algorithm: sha256WithRSAEncryption
        Issuer: C=DE, ST=Hessen, O=privacyidea, CN=CA001
        Validity
            Not Before: Sep  7 13:42:10 2017 GMT
            Not After : Sep  7 13:42:10 2018 GMT
        Subject: C=DE, ST=Hessen, O=privacyidea, CN=usercert
        Subject Public Key Info:
            Public Key Algorithm: rsaEncryption
                Public-Key: (2048 bit)
                Modulus:
                    00:dc:2f:d1:5f:29:97:d4:7c:c3:53:c8:30:bd:4b:
                    67:70:2c:24:6b:b8:5e:eb:21:7a:48:12:56:7c:81:
                    5c:48:75:b6:68:eb:f6:f2:98:4e:50:51:d1:7f:6c:
                    73:f3:0a:a7:ae:be:48:5e:e5:d6:e1:d9:2a:7c:32:
                    6e:4e:fd:08:f6:5a:54:49:23:73:c3:b9:07:18:d1:
                    ef:b3:ac:f8:8a:dc:94:96:a4:90:3a:8e:74:df:e6:
                    0d:37:1b:bd:5b:b7:25:1a:56:39:da:6f:91:aa:5e:
                    1c:74:f3:f9:7c:14:01:83:12:65:76:c7:bb:fe:36:
                    5b:95:e9:72:65:83:ed:3e:98:30:71:fa:87:dd:a3:
                    36:5a:30:03:2e:26:e0:61:d1:bf:02:3f:b6:06:1f:
                    4a:89:28:1c:5c:a2:ff:4e:be:94:e6:8c:e0:da:82:
                    f1:9d:29:32:48:30:73:b4:04:f6:42:1e:be:f7:e2:
                    32:32:27:3c:9d:89:2f:70:3e:85:9a:6f:5c:c5:09:
                    c0:8c:32:2f:72:22:c9:d2:95:1f:b6:ac:72:60:72:
                    b7:82:4d:6b:ce:5b:e3:00:d0:d2:2f:58:c6:e0:10:
                    e5:51:ca:4d:3b:2e:e6:7e:ab:84:d6:56:f1:93:35:
                    a0:93:64:26:81:75:2f:91:b5:16:06:38:0b:db:cc:
                    2d:07
                Exponent: 65537 (0x10001)
        X509v3 extensions:
            X509v3 Key Usage: 
                Digital Signature, Key Encipherment
            X509v3 Basic Constraints: 
                CA:FALSE
            Netscape Cert Type: 
                SSL Server
            Netscape Comment: 
                OpenSSL Generated Server Certificate
            X509v3 Subject Key Identifier: 
                FC:14:D1:F0:4B:8D:00:90:F2:F5:B8:71:9E:4E:97:C3:92:54:AD:0B
            X509v3 Authority Key Identifier: 
                keyid:F4:A7:C0:CC:91:46:AF:64:F3:91:F2:27:F8:C8:B2:6F:8A:87:32:73
                DirName:/C=DE/ST=Hessen/O=privacyidea/CN=CA001
                serial:FB:C8:EB:AC:83:CD:12:07

            X509v3 Extended Key Usage: 
                TLS Web Server Authentication
    Signature Algorithm: sha256WithRSAEncryption
         13:63:b6:bc:a8:c4:d8:00:d3:f5:c5:c9:e9:1e:ee:e3:73:24:
         14:23:19:a4:7f:a9:3e:b3:b7:45:ac:1f:59:9b:f7:09:38:0e:
         55:6f:0f:80:fb:16:b2:f9:85:f9:dd:de:13:03:f2:3b:02:16:
         99:8f:cd:33:57:24:d7:07:32:91:a9:da:1b:a9:da:a7:e1:5c:
         c2:09:c7:fb:d2:30:d9:34:bc:8a:b0:cb:e1:0e:37:f1:9a:89:
         9c:12:db:3c:45:4d:0b:dc:7d:35:cd:88:69:42:e9:8a:92:6b:
         3f:88:83:50:c0:d3:bd:ce:c9:6e:e5:fb:38:31:51:e8:07:7a:
         c3:e4:63:70:b0:53:31:5e:05:8a:b0:82:b8:c2:0a:42:9e:64:
         0c:97:9e:a3:fd:98:2d:a4:98:f3:06:54:bd:5d:b6:a7:cd:e8:
         ed:18:71:46:78:d1:b1:e7:b4:90:ec:23:44:eb:43:fe:a0:6a:
         15:1b:f2:b8:95:7c:ce:e2:70:57:3e:c0:6b:cf:8a:a3:6f:1e:
         be:03:d2:7c:4e:ed:5f:39:fd:ed:d2:5e:ac:e7:b5:47:8a:1c:
         83:8e:38:4f:65:ce:9f:f2:c8:0a:be:18:95:b1:cb:93:d7:8a:
         eb:fa:82:f6:3d:f9:6b:f0:da:58:1d:e9:8d:4e:32:7a:d3:99:
         6f:4b:fb:04
-----BEGIN CERTIFICATE-----
MIIEGTCCAwGgAwIBAgIEEAAA3TANBgkqhkiG9w0BAQsFADBEMQswCQYDVQQGEwJE
RTEPMA0GA1UECAwGSGVzc2VuMRQwEgYDVQQKDAtwcml2YWN5aWRlYTEOMAwGA1UE
AwwFQ0EwMDEwHhcNMTcwOTA3MTM0MjEwWhcNMTgwOTA3MTM0MjEwWjBHMQswCQYD
VQQGEwJERTEPMA0GA1UECAwGSGVzc2VuMRQwEgYDVQQKDAtwcml2YWN5aWRlYTER
MA8GA1UEAwwIdXNlcmNlcnQwggEiMA0GCSqGSIb3DQEBAQUAA4IBDwAwggEKAoIB
AQDcL9FfKZfUfMNTyDC9S2dwLCRruF7rIXpIElZ8gVxIdbZo6/bymE5QUdF/bHPz
Cqeuvkhe5dbh2Sp8Mm5O/Qj2WlRJI3PDuQcY0e+zrPiK3JSWpJA6jnTf5g03G71b
tyUaVjnab5GqXhx08/l8FAGDEmV2x7v+NluV6XJlg+0+mDBx+ofdozZaMAMuJuBh
0b8CP7YGH0qJKBxcov9OvpTmjODagvGdKTJIMHO0BPZCHr734jIyJzydiS9wPoWa
b1zFCcCMMi9yIsnSlR+2rHJgcreCTWvOW+MA0NIvWMbgEOVRyk07LuZ+q4TWVvGT
NaCTZCaBdS+RtRYGOAvbzC0HAgMBAAGjggEOMIIBCjALBgNVHQ8EBAMCBaAwCQYD
VR0TBAIwADARBglghkgBhvhCAQEEBAMCBkAwMwYJYIZIAYb4QgENBCYWJE9wZW5T
U0wgR2VuZXJhdGVkIFNlcnZlciBDZXJ0aWZpY2F0ZTAdBgNVHQ4EFgQU/BTR8EuN
AJDy9bhxnk6Xw5JUrQswdAYDVR0jBG0wa4AU9KfAzJFGr2TzkfIn+Miyb4qHMnOh
SKRGMEQxCzAJBgNVBAYTAkRFMQ8wDQYDVQQIDAZIZXNzZW4xFDASBgNVBAoMC3By
aXZhY3lpZGVhMQ4wDAYDVQQDDAVDQTAwMYIJAPvI66yDzRIHMBMGA1UdJQQMMAoG
CCsGAQUFBwMBMA0GCSqGSIb3DQEBCwUAA4IBAQATY7a8qMTYANP1xcnpHu7jcyQU
Ixmkf6k+s7dFrB9Zm/cJOA5Vbw+A+xay+YX53d4TA/I7AhaZj80zVyTXBzKRqdob
qdqn4VzCCcf70jDZNLyKsMvhDjfxmomcEts8RU0L3H01zYhpQumKkms/iINQwNO9
zslu5fs4MVHoB3rD5GNwsFMxXgWKsIK4wgpCnmQMl56j/ZgtpJjzBlS9Xbanzejt
GHFGeNGx57SQ7CNE60P+oGoVG/K4lXzO4nBXPsBrz4qjbx6+A9J8Tu1fOf3t0l6s
57VHihyDjjhPZc6f8sgKvhiVscuT14rr+oL2Pflr8NpYHemNTjJ605lvS/sE
-----END CERTIFICATE-----
