Certificate:
    Data:
        Version: 3 (0x2)
        Serial Number: 268435678 (0x100000de)
    Signature Algorithm: sha256WithRSAEncryption
        Issuer: C=DE, ST=Hessen, O=privacyidea, CN=CA001
        Validity
            Not Before: Sep  7 13:42:11 2017 GMT
            Not After : Sep  7 13:42:11 2018 GMT
        Subject: CN=Steve Test/emailAddress=steve@openssl.org
        Subject Public Key Info:
            Public Key Algorithm: rsaEncryption
                Public-Key: (2048 bit)
                Modulus:
                    00:d2:81:89:20:51:48:0f:73:f4:11:32:24:d5:1f:
                    1c:fd:5c:f5:b6:e6:c5:f0:52:81:dc:d2:af:66:4a:
                    7c:93:31:61:5c:af:d1:6d:06:70:03:60:7c:72:0c:
                    88:dd:49:cd:9e:02:6c:d2:5a:d7:53:0f:f3:da:be:
                    69:64:b5:0f:0c:00:e3:b3:50:47:a3:b3:9b:ba:13:
                    50:d6:58:5a:4b:ab:39:e0:11:ca:0a:27:67:03:78:
                    22:66:6d:92:1e:1b:5c:49:ae:e6:6b:d1:8e:3b:9d:
                    06:d3:c6:ac:4d:53:43:10:ab:e8:96:c1:87:82:97:
                    99:8f:20:d3:99:12:37:31:84:e1:8a:ff:29:03:5f:
                    22:90:3e:7f:9b:e0:20:c1:ad:dc:ae:4c:39:1a:31:
                    96:17:02:8c:b2:d9:b4:0d:20:12:9b:7d:86:54:fd:
                    33:fd:c1:2a:62:46:f8:60:96:cf:6e:01:6f:22:df:
                    13:47:e7:97:ec:05:72:23:a3:62:f8:fa:ef:ac:9c:
                    72:f0:37:cb:2f:37:cf:90:a8:27:51:86:c6:d7:78:
                    08:8f:7e:25:a2:15:70:a2:fb:1c:b6:15:5e:a0:97:
                    8b:81:4c:09:28:8a:27:3b:94:bc:71:db:5b:71:37:
                    9a:2b:16:e0:6f:b5:c9:f5:4b:4f:20:ba:65:cf:af:
                    ad:ad
                Exponent: 65537 (0x10001)
        X509v3 extensions:
            X509v3 Key Usage: 
                Digital Signature, Key Encipherment
            X509v3 Basic Constraints: 
                CA:FALSE
            Netscape Cert Type: 
                SSL Server
            Netscape Comment: 
                OpenSSL Generated Server Certificate
            X509v3 Subject Key Identifier: 
                E5:25:6D:3E:AF:0D:DD:3F:4C:F2:45:19:39:D5:14:DB:7E:9C:C0:AD
            X509v3 Authority Key Identifier: 
                keyid:F4:A7:C0:CC:91:46:AF:64:F3:91:F2:27:F8:C8:B2:6F:8A:87:32:73
                DirName:/C=DE/ST=Hessen/O=privacyidea/CN=CA001
                serial:FB:C8:EB:AC:83:CD:12:07

            X509v3 Extended Key Usage: 
                TLS Web Server Authentication
    Signature Algorithm: sha256WithRSAEncryption
         14:46:26:0f:08:64:65:0c:1a:79:6e:4e:2d:68:07:a8:8c:15:
         5e:e9:c3:69:45:a9:02:ae:00:86:4b:98:37:a7:e1:12:67:87:
         6b:06:26:73:80:88:e2:86:c2:c3:5b:a6:a2:93:ea:a9:e4:dc:
         e3:af:30:22:14:36:8e:5e:74:6d:76:f1:a2:03:48:f6:68:b7:
         9a:1b:04:c9:ca:52:ec:26:58:c1:86:ba:1c:01:66:fa:80:2e:
         04:5b:6f:48:1b:d2:ed:4b:21:73:d9:9a:15:c3:89:fc:e9:b5:
         6f:96:4a:ac:26:ad:71:cc:12:ac:25:58:f1:d2:a2:a2:1f:75:
         58:8e:27:65:be:b6:b2:d3:dd:af:b5:8c:39:cf:7e:6e:94:a7:
         bc:5d:e3:ae:d2:75:a8:02:20:ee:b8:ec:f5:f3:62:bc:5a:11:
         57:29:5c:f0:1f:5c:46:b3:d0:17:1f:db:f8:14:22:fa:bc:98:
         96:00:9c:b5:2b:f9:09:a5:3e:e6:1c:38:d5:95:7f:d8:bb:49:
         6f:0b:a5:5a:fb:a7:91:cb:a3:69:b8:30:a3:fe:41:01:5b:01:
         75:7a:20:24:33:31:39:40:b8:64:42:8d:65:50:cd:59:c7:89:
         08:da:8f:8e:41:69:0f:7d:63:83:67:0d:01:7e:ba:0c:73:7b:
         02:6d:a9:03
-----BEGIN CERTIFICATE-----
MIIECTCCAvGgAwIBAgIEEAAA3jANBgkqhkiG9w0BAQsFADBEMQswCQYDVQQGEwJE
RTEPMA0GA1UECAwGSGVzc2VuMRQwEgYDVQQKDAtwcml2YWN5aWRlYTEOMAwGA1UE
AwwFQ0EwMDEwHhcNMTcwOTA3MTM0MjExWhcNMTgwOTA3MTM0MjExWjA3MRMwEQYD
VQQDDApTdGV2ZSBUZXN0MSAwHgYJKoZIhvcNAQkBFhFzdGV2ZUBvcGVuc3NsLm9y
ZzCCASIwDQYJKoZIhvcNAQEBBQADggEPADCCAQoCggEBANKBiSBRSA9z9BEyJNUf
HP1c9bbmxfBSgdzSr2ZKfJMxYVyv0W0GcANgfHIMiN1JzZ4CbNJa11MP89q+aWS1
DwwA47NQR6Ozm7oTUNZYWkurOeARygonZwN4ImZtkh4bXEmu5mvRjjudBtPGrE1T
QxCr6JbBh4KXmY8g05kSNzGE4Yr/KQNfIpA+f5vgIMGt3K5MORoxlhcCjLLZtA0g
Ept9hlT9M/3BKmJG+GCWz24BbyLfE0fnl+wFciOjYvj676yccvA3yy83z5CoJ1GG
xtd4CI9+JaIVcKL7HLYVXqCXi4FMCSiKJzuUvHHbW3E3misW4G+1yfVLTyC6Zc+v
ra0CAwEAAaOCAQ4wggEKMAsGA1UdDwQEAwIFoDAJBgNVHRMEAjAAMBEGCWCGSAGG
+EIBAQQEAwIGQDAzBglghkgBhvhCAQ0EJhYkT3BlblNTTCBHZW5lcmF0ZWQgU2Vy
dmVyIENlcnRpZmljYXRlMB0GA1UdDgQWBBTlJW0+rw3dP0zyRRk51RTbfpzArTB0
BgNVHSMEbTBrgBT0p8DMkUavZPOR8if4yLJviocyc6FIpEYwRDELMAkGA1UEBhMC
REUxDzANBgNVBAgMBkhlc3NlbjEUMBIGA1UECgwLcHJpdmFjeWlkZWExDjAMBgNV
BAMMBUNBMDAxggkA+8jrrIPNEgcwEwYDVR0lBAwwCgYIKwYBBQUHAwEwDQYJKoZI
hvcNAQELBQADggEBABRGJg8IZGUMGnluTi1oB6iMFV7pw2lFqQKuAIZLmDen4RJn
h2sGJnOAiOKGwsNbpqKT6qnk3OOvMCIUNo5edG128aIDSPZot5obBMnKUuwmWMGG
uhwBZvqALgRbb0gb0u1LIXPZmhXDifzptW+WSqwmrXHMEqwlWPHSoqIfdViOJ2W+
trLT3a+1jDnPfm6Up7xd467SdagCIO647PXzYrxaEVcpXPAfXEaz0Bcf2/gUIvq8
mJYAnLUr+QmlPuYcONWVf9i7SW8LpVr7p5HLo2m4MKP+QQFbAXV6ICQzMTlAuGRC
jWVQzVnHiQjaj45BaQ99Y4NnDQF+ugxzewJtqQM=
-----END CERTIFICATE-----
