Certificate:
    Data:
        Version: 3 (0x2)
        Serial Number: 268435668 (0x100000d4)
    Signature Algorithm: sha256WithRSAEncryption
        Issuer: C=DE, ST=Hessen, O=privacyidea, CN=CA001
        Validity
            Not Before: Oct 25 19:01:20 2017 GMT
            Not After : Nov 14 19:01:20 2019 GMT
        Subject: CN=Steve Test/emailAddress=steve@openssl.org
        Subject Public Key Info:
            Public Key Algorithm: rsaEncryption
                Public-Key: (2048 bit)
                Modulus:
                    00:d2:81:89:20:51:48:0f:73:f4:11:32:24:d5:1f:
                    1c:fd:5c:f5:b6:e6:c5:f0:52:81:dc:d2:af:66:4a:
                    7c:93:31:61:5c:af:d1:6d:06:70:03:60:7c:72:0c:
                    88:dd:49:cd:9e:02:6c:d2:5a:d7:53:0f:f3:da:be:
                    69:64:b5:0f:0c:00:e3:b3:50:47:a3:b3:9b:ba:13:
                    50:d6:58:5a:4b:ab:39:e0:11:ca:0a:27:67:03:78:
                    22:66:6d:92:1e:1b:5c:49:ae:e6:6b:d1:8e:3b:9d:
                    06:d3:c6:ac:4d:53:43:10:ab:e8:96:c1:87:82:97:
                    99:8f:20:d3:99:12:37:31:84:e1:8a:ff:29:03:5f:
                    22:90:3e:7f:9b:e0:20:c1:ad:dc:ae:4c:39:1a:31:
                    96:17:02:8c:b2:d9:b4:0d:20:12:9b:7d:86:54:fd:
                    33:fd:c1:2a:62:46:f8:60:96:cf:6e:01:6f:22:df:
                    13:47:e7:97:ec:05:72:23:a3:62:f8:fa:ef:ac:9c:
                    72:f0:37:cb:2f:37:cf:90:a8:27:51:86:c6:d7:78:
                    08:8f:7e:25:a2:15:70:a2:fb:1c:b6:15:5e:a0:97:
                    8b:81:4c:09:28:8a:27:3b:94:bc:71:db:5b:71:37:
                    9a:2b:16:e0:6f:b5:c9:f5:4b:4f:20:ba:65:cf:af:
                    ad:ad
                Exponent: 65537 (0x10001)
        X509v3 extensions:
            X509v3 Key Usage: 
                Digital Signature, Key Encipherment
            X509v3 Basic Constraints: 
                CA:FALSE
            Netscape Cert Type: 
                SSL Server
            Netscape Comment: 
                OpenSSL Generated Server Certificate
            X509v3 Subject Key Identifier: 
                E5:25:6D:3E:AF:0D:DD:3F:4C:F2:45:19:39:D5:14:DB:7E:9C:C0:AD
            X509v3 Authority Key Identifier: 
                keyid:F4:A7:C0:CC:91:46:AF:64:F3:91:F2:27:F8:C8:B2:6F:8A:87:32:73
                DirName:/C=DE/ST=Hessen/O=privacyidea/CN=CA001
                serial:FB:C8:EB:AC:83:CD:12:07

            X509v3 Extended Key Usage: 
                TLS Web Server Authentication
    Signature Algorithm: sha256WithRSAEncryption
         a0:ac:ad:98:04:46:40:91:42:4e:f3:ef:01:1e:92:72:7c:0d:
         0f:84:17:64:95:c3:cf:de:c1:de:9d:3a:22:00:74:c5:53:07:
         df:d0:1a:9f:37:be:22:a8:c3:68:93:8e:49:fd:1d:1b:77:49:
         28:9a:44:a8:1c:7c:c3:ae:25:c0:39:f5:0d:90:5f:3a:50:e3:
         89:32:5d:ed:c0:77:6f:7c:70:47:f1:1b:72:06:03:a5:61:1a:
         69:c5:71:5f:14:82:44:16:27:02:d7:17:38:5a:66:33:45:ad:
         15:34:2a:dd:eb:3e:70:85:f3:e4:26:97:aa:20:ad:57:8e:3c:
         4e:cb:90:bb:c9:78:8b:de:bd:e9:0a:b5:7b:bc:54:87:08:e3:
         98:63:70:6b:2c:44:ca:83:a4:07:a8:fa:79:8d:2e:ba:48:f5:
         97:c8:2a:ee:8a:39:66:49:5a:eb:0d:fc:0f:3e:64:25:60:82:
         6c:03:b3:64:f7:48:ba:4e:92:62:15:ca:db:3a:4b:5e:64:79:
         71:1a:e6:d4:f1:28:a7:f2:be:ba:5d:85:3b:19:b3:ac:b1:15:
         1d:50:d2:70:91:0a:c8:5b:27:cb:7c:2e:06:9b:9a:7a:3e:5d:
         5c:d8:23:db:64:28:bb:cf:6f:35:b7:93:62:0e:3d:6f:7e:00:
         78:a3:b4:03
-----BEGIN CERTIFICATE-----
MIIECTCCAvGgAwIBAgIEEAAA1DANBgkqhkiG9w0BAQsFADBEMQswCQYDVQQGEwJE
RTEPMA0GA1UECAwGSGVzc2VuMRQwEgYDVQQKDAtwcml2YWN5aWRlYTEOMAwGA1UE
AwwFQ0EwMDEwHhcNMTcxMDI1MTkwMTIwWhcNMTkxMTE0MTkwMTIwWjA3MRMwEQYD
VQQDDApTdGV2ZSBUZXN0MSAwHgYJKoZIhvcNAQkBFhFzdGV2ZUBvcGVuc3NsLm9y
ZzCCASIwDQYJKoZIhvcNAQEBBQADggEPADCCAQoCggEBANKBiSBRSA9z9BEyJNUf
HP1c9bbmxfBSgdzSr2ZKfJMxYVyv0W0GcANgfHIMiN1JzZ4CbNJa11MP89q+aWS1
DwwA47NQR6Ozm7oTUNZYWkurOeARygonZwN4ImZtkh4bXEmu5mvRjjudBtPGrE1T
QxCr6JbBh4KXmY8g05kSNzGE4Yr/KQNfIpA+f5vgIMGt3K5MORoxlhcCjLLZtA0g
Ept9hlT9M/3BKmJG+GCWz24BbyLfE0fnl+wFciOjYvj676yccvA3yy83z5CoJ1GG
xtd4CI9+JaIVcKL7HLYVXqCXi4FMCSiKJzuUvHHbW3E3misW4G+1yfVLTyC6Zc+v
ra0CAwEAAaOCAQ4wggEKMAsGA1UdDwQEAwIFoDAJBgNVHRMEAjAAMBEGCWCGSAGG
+EIBAQQEAwIGQDAzBglghkgBhvhCAQ0EJhYkT3BlblNTTCBHZW5lcmF0ZWQgU2Vy
dmVyIENlcnRpZmljYXRlMB0GA1UdDgQWBBTlJW0+rw3dP0zyRRk51RTbfpzArTB0
BgNVHSMEbTBrgBT0p8DMkUavZPOR8if4yLJviocyc6FIpEYwRDELMAkGA1UEBhMC
REUxDzANBgNVBAgMBkhlc3NlbjEUMBIGA1UECgwLcHJpdmFjeWlkZWExDjAMBgNV
BAMMBUNBMDAxggkA+8jrrIPNEgcwEwYDVR0lBAwwCgYIKwYBBQUHAwEwDQYJKoZI
hvcNAQELBQADggEBAKCsrZgERkCRQk7z7wEeknJ8DQ+EF2SVw8/ewd6dOiIAdMVT
B9/QGp83viKow2iTjkn9HRt3SSiaRKgcfMOuJcA59Q2QXzpQ44kyXe3Ad298cEfx
G3IGA6VhGmnFcV8UgkQWJwLXFzhaZjNFrRU0Kt3rPnCF8+Qml6ogrVeOPE7LkLvJ
eIvevekKtXu8VIcI45hjcGssRMqDpAeo+nmNLrpI9ZfIKu6KOWZJWusN/A8+ZCVg
gmwDs2T3SLpOkmIVyts6S15keXEa5tTxKKfyvrpdhTsZs6yxFR1Q0nCRCshbJ8t8
Lgabmno+XVzYI9tkKLvPbzW3k2IOPW9+AHijtAM=
-----END CERTIFICATE-----
