Certificate:
    Data:
        Version: 3 (0x2)
        Serial Number: 268435673 (0x100000d9)
    Signature Algorithm: sha256WithRSAEncryption
        Issuer: C=DE, ST=Hessen, O=privacyidea, CN=CA001
        Validity
            Not Before: Sep  7 13:35:17 2017 GMT
            Not After : Sep  7 13:35:17 2018 GMT
        Subject: C=DE, ST=Hessen, O=privacyidea, CN=requester.localdomain
        Subject Public Key Info:
            Public Key Algorithm: rsaEncryption
                Public-Key: (2048 bit)
                Modulus:
                    00:cd:be:14:4f:fa:ce:01:3f:42:22:1b:1d:9c:af:
                    dd:92:d2:7f:db:6c:b7:3e:39:43:43:6b:13:03:f1:
                    05:f4:07:74:bc:76:69:28:0b:af:19:8e:d7:fc:e3:
                    cd:c6:58:f2:ca:7f:08:6d:53:fc:07:02:44:24:c6:
                    b4:34:4c:8c:04:fe:33:0e:40:e2:20:ba:02:73:5a:
                    f7:f5:4f:63:6e:cc:c6:b6:df:54:1d:37:39:7d:51:
                    36:26:5f:bd:dc:3f:a8:8b:6b:a2:ae:b6:9d:d6:21:
                    e7:df:41:b8:7a:28:2a:68:48:ca:a8:2d:ed:e1:e9:
                    46:5e:5a:72:6d:b4:84:38:87:91:fd:94:11:0b:28:
                    84:c6:c2:2f:2a:fb:01:f9:36:7a:09:75:d1:33:88:
                    3c:73:41:5b:c8:bf:94:89:70:a1:f0:c0:b9:2e:50:
                    53:1e:b1:17:64:69:f4:2d:81:e0:a9:0d:0e:32:e9:
                    ba:55:8a:85:f1:1b:6f:49:79:b4:7f:88:c3:0d:3e:
                    54:88:9b:3d:1f:38:8c:04:f3:ee:6a:63:2b:f5:c6:
                    db:b4:83:aa:c4:78:41:3a:7d:4b:e1:c8:3e:71:ca:
                    1b:61:59:ea:c6:c4:ca:32:5e:c9:e9:bf:12:29:e6:
                    c6:c3:63:fe:a0:55:da:7a:f1:60:98:4d:26:ed:fa:
                    70:2d
                Exponent: 65537 (0x10001)
        X509v3 extensions:
            X509v3 Key Usage: 
                Digital Signature, Key Encipherment
            X509v3 Basic Constraints: 
                CA:FALSE
            Netscape Cert Type: 
                SSL Server
            Netscape Comment: 
                OpenSSL Generated Server Certificate
            X509v3 Subject Key Identifier: 
                53:3F:ED:5D:09:07:B3:65:7B:AB:45:C9:24:5B:09:77:80:0A:96:ED
            X509v3 Authority Key Identifier: 
                keyid:F4:A7:C0:CC:91:46:AF:64:F3:91:F2:27:F8:C8:B2:6F:8A:87:32:73
                DirName:/C=DE/ST=Hessen/O=privacyidea/CN=CA001
                serial:FB:C8:EB:AC:83:CD:12:07

            X509v3 Extended Key Usage: 
                TLS Web Server Authentication
    Signature Algorithm: sha256WithRSAEncryption
         1b:b0:be:d2:e4:aa:1a:cb:90:cf:80:27:5d:1c:13:d0:2a:d1:
         51:b5:c5:57:d1:33:2e:bc:a3:a9:f0:9b:33:6a:63:5c:7f:a7:
         8a:b3:b3:6f:c2:66:b0:43:d1:52:99:0c:31:93:79:c7:bc:20:
         b3:19:30:85:ed:77:1f:ac:96:cb:b6:c1:35:30:6a:ef:27:51:
         30:cf:15:d3:0d:42:a7:fb:6e:ff:97:8c:96:0d:a6:3d:ae:d1:
         02:2a:39:fc:a6:3f:dc:42:a1:55:3b:85:57:5a:44:6e:26:a8:
         e5:b4:91:e6:8e:08:8c:8f:3a:60:4c:24:63:a6:2d:b2:06:3a:
         bd:4d:4b:17:64:62:6b:46:01:3c:d8:8b:ef:b8:ae:ea:00:c4:
         0a:d8:61:21:dc:20:fb:2d:c2:88:b5:b4:05:ee:75:9c:e9:e7:
         84:77:44:0d:78:48:4d:f8:d5:0a:64:98:ed:bf:3b:da:5b:25:
         8c:ae:8d:9a:f3:50:db:85:b3:80:84:77:a5:95:80:a9:89:09:
         76:5c:f4:15:b3:36:bf:de:18:0b:aa:2b:e0:8e:30:eb:01:c3:
         9f:9b:35:a2:26:5a:ed:10:ad:92:3b:7f:ed:b7:22:be:90:e0:
         b2:98:7b:e4:09:32:0e:cf:dc:d8:ce:fa:e4:f8:08:e4:43:a4:
         73:57:b8:34
-----BEGIN CERTIFICATE-----
MIIEJjCCAw6gAwIBAgIEEAAA2TANBgkqhkiG9w0BAQsFADBEMQswCQYDVQQGEwJE
RTEPMA0GA1UECAwGSGVzc2VuMRQwEgYDVQQKDAtwcml2YWN5aWRlYTEOMAwGA1UE
AwwFQ0EwMDEwHhcNMTcwOTA3MTMzNTE3WhcNMTgwOTA3MTMzNTE3WjBUMQswCQYD
VQQGEwJERTEPMA0GA1UECAwGSGVzc2VuMRQwEgYDVQQKDAtwcml2YWN5aWRlYTEe
MBwGA1UEAwwVcmVxdWVzdGVyLmxvY2FsZG9tYWluMIIBIjANBgkqhkiG9w0BAQEF
AAOCAQ8AMIIBCgKCAQEAzb4UT/rOAT9CIhsdnK/dktJ/22y3PjlDQ2sTA/EF9Ad0
vHZpKAuvGY7X/OPNxljyyn8IbVP8BwJEJMa0NEyMBP4zDkDiILoCc1r39U9jbszG
tt9UHTc5fVE2Jl+93D+oi2uirrad1iHn30G4eigqaEjKqC3t4elGXlpybbSEOIeR
/ZQRCyiExsIvKvsB+TZ6CXXRM4g8c0FbyL+UiXCh8MC5LlBTHrEXZGn0LYHgqQ0O
Mum6VYqF8RtvSXm0f4jDDT5UiJs9HziMBPPuamMr9cbbtIOqxHhBOn1L4cg+ccob
YVnqxsTKMl7J6b8SKebGw2P+oFXaevFgmE0m7fpwLQIDAQABo4IBDjCCAQowCwYD
VR0PBAQDAgWgMAkGA1UdEwQCMAAwEQYJYIZIAYb4QgEBBAQDAgZAMDMGCWCGSAGG
+EIBDQQmFiRPcGVuU1NMIEdlbmVyYXRlZCBTZXJ2ZXIgQ2VydGlmaWNhdGUwHQYD
VR0OBBYEFFM/7V0JB7Nle6tFySRbCXeACpbtMHQGA1UdIwRtMGuAFPSnwMyRRq9k
85HyJ/jIsm+KhzJzoUikRjBEMQswCQYDVQQGEwJERTEPMA0GA1UECAwGSGVzc2Vu
MRQwEgYDVQQKDAtwcml2YWN5aWRlYTEOMAwGA1UEAwwFQ0EwMDGCCQD7yOusg80S
BzATBgNVHSUEDDAKBggrBgEFBQcDATANBgkqhkiG9w0BAQsFAAOCAQEAG7C+0uSq
GsuQz4AnXRwT0CrRUbXFV9EzLryjqfCbM2pjXH+nirOzb8JmsEPRUpkMMZN5x7wg
sxkwhe13H6yWy7bBNTBq7ydRMM8V0w1Cp/tu/5eMlg2mPa7RAio5/KY/3EKhVTuF
V1pEbiao5bSR5o4IjI86YEwkY6YtsgY6vU1LF2Ria0YBPNiL77iu6gDECthhIdwg
+y3CiLW0Be51nOnnhHdEDXhITfjVCmSY7b872lsljK6NmvNQ24WzgIR3pZWAqYkJ
dlz0FbM2v94YC6or4I4w6wHDn5s1oiZa7RCtkjt/7bcivpDgsph75AkyDs/c2M76
5PgI5EOkc1e4NA==
-----END CERTIFICATE-----
