Certificate:
    Data:
        Version: 3 (0x2)
        Serial Number: 268435667 (0x100000d3)
    Signature Algorithm: sha256WithRSAEncryption
        Issuer: C=DE, ST=Hessen, O=privacyidea, CN=CA001
        Validity
            Not Before: Oct 25 19:01:20 2017 GMT
            Not After : Oct 25 19:01:20 2018 GMT
        Subject: CN=Steve Test/emailAddress=steve@openssl.org
        Subject Public Key Info:
            Public Key Algorithm: rsaEncryption
                Public-Key: (2048 bit)
                Modulus:
                    00:d2:81:89:20:51:48:0f:73:f4:11:32:24:d5:1f:
                    1c:fd:5c:f5:b6:e6:c5:f0:52:81:dc:d2:af:66:4a:
                    7c:93:31:61:5c:af:d1:6d:06:70:03:60:7c:72:0c:
                    88:dd:49:cd:9e:02:6c:d2:5a:d7:53:0f:f3:da:be:
                    69:64:b5:0f:0c:00:e3:b3:50:47:a3:b3:9b:ba:13:
                    50:d6:58:5a:4b:ab:39:e0:11:ca:0a:27:67:03:78:
                    22:66:6d:92:1e:1b:5c:49:ae:e6:6b:d1:8e:3b:9d:
                    06:d3:c6:ac:4d:53:43:10:ab:e8:96:c1:87:82:97:
                    99:8f:20:d3:99:12:37:31:84:e1:8a:ff:29:03:5f:
                    22:90:3e:7f:9b:e0:20:c1:ad:dc:ae:4c:39:1a:31:
                    96:17:02:8c:b2:d9:b4:0d:20:12:9b:7d:86:54:fd:
                    33:fd:c1:2a:62:46:f8:60:96:cf:6e:01:6f:22:df:
                    13:47:e7:97:ec:05:72:23:a3:62:f8:fa:ef:ac:9c:
                    72:f0:37:cb:2f:37:cf:90:a8:27:51:86:c6:d7:78:
                    08:8f:7e:25:a2:15:70:a2:fb:1c:b6:15:5e:a0:97:
                    8b:81:4c:09:28:8a:27:3b:94:bc:71:db:5b:71:37:
                    9a:2b:16:e0:6f:b5:c9:f5:4b:4f:20:ba:65:cf:af:
                    ad:ad
                Exponent: 65537 (0x10001)
        X509v3 extensions:
            X509v3 Key Usage: 
                Digital Signature, Key Encipherment
            X509v3 Basic Constraints: 
                CA:FALSE
            Netscape Cert Type: 
                SSL Server
            Netscape Comment: 
                OpenSSL Generated Server Certificate
            X509v3 Subject Key Identifier: 
                E5:25:6D:3E:AF:0D:DD:3F:4C:F2:45:19:39:D5:14:DB:7E:9C:C0:AD
            X509v3 Authority Key Identifier: 
                keyid:F4:A7:C0:CC:91:46:AF:64:F3:91:F2:27:F8:C8:B2:6F:8A:87:32:73
                DirName:/C=DE/ST=Hessen/O=privacyidea/CN=CA001
                serial:FB:C8:EB:AC:83:CD:12:07

            X509v3 Extended Key Usage: 
                TLS Web Server Authentication
    Signature Algorithm: sha256WithRSAEncryption
         ac:ba:53:d3:7f:2b:26:6a:63:c5:58:1c:de:7e:69:ce:0b:e3:
         c6:85:18:6b:c7:3b:53:55:8f:eb:1d:21:7d:ad:6d:6c:e5:1f:
         dd:cb:19:fc:b1:af:f2:c4:8c:bf:6b:08:a2:ad:d1:b1:08:e6:
         80:56:30:e2:71:48:1e:67:5a:28:f4:99:39:81:e8:fc:4a:67:
         0c:81:52:8b:67:5b:d3:74:64:bd:c4:4b:c2:3a:d8:51:c0:3c:
         ed:27:5d:ca:e0:32:35:a3:1a:37:04:89:b5:67:4a:42:06:72:
         5b:89:58:f4:c4:d8:0c:ec:f9:52:8c:0e:66:00:20:fa:25:db:
         b0:9f:c8:8d:22:83:0b:0a:37:0f:4a:7e:8f:11:de:a0:73:46:
         dd:2b:94:43:c8:ec:19:4c:4c:0b:6c:1e:c9:10:85:a2:74:03:
         44:ca:d0:cd:89:27:bb:bd:39:0e:a7:52:90:3d:97:38:93:91:
         34:08:1b:ba:39:6b:44:e2:75:c1:6f:5e:c7:88:be:7d:82:2c:
         ed:65:47:61:1a:a9:e2:a1:98:df:21:26:e7:2d:e4:17:53:b5:
         06:de:fe:ce:dd:43:b6:5e:75:db:c9:72:69:b9:75:75:68:c1:
         d8:db:be:d6:56:6a:79:fd:88:cd:94:2d:7a:41:6b:5f:d1:b6:
         ee:cb:97:88
-----BEGIN CERTIFICATE-----
MIIECTCCAvGgAwIBAgIEEAAA0zANBgkqhkiG9w0BAQsFADBEMQswCQYDVQQGEwJE
RTEPMA0GA1UECAwGSGVzc2VuMRQwEgYDVQQKDAtwcml2YWN5aWRlYTEOMAwGA1UE
AwwFQ0EwMDEwHhcNMTcxMDI1MTkwMTIwWhcNMTgxMDI1MTkwMTIwWjA3MRMwEQYD
VQQDDApTdGV2ZSBUZXN0MSAwHgYJKoZIhvcNAQkBFhFzdGV2ZUBvcGVuc3NsLm9y
ZzCCASIwDQYJKoZIhvcNAQEBBQADggEPADCCAQoCggEBANKBiSBRSA9z9BEyJNUf
HP1c9bbmxfBSgdzSr2ZKfJMxYVyv0W0GcANgfHIMiN1JzZ4CbNJa11MP89q+aWS1
DwwA47NQR6Ozm7oTUNZYWkurOeARygonZwN4ImZtkh4bXEmu5mvRjjudBtPGrE1T
QxCr6JbBh4KXmY8g05kSNzGE4Yr/KQNfIpA+f5vgIMGt3K5MORoxlhcCjLLZtA0g
Ept9hlT9M/3BKmJG+GCWz24BbyLfE0fnl+wFciOjYvj676yccvA3yy83z5CoJ1GG
xtd4CI9+JaIVcKL7HLYVXqCXi4FMCSiKJzuUvHHbW3E3misW4G+1yfVLTyC6Zc+v
ra0CAwEAAaOCAQ4wggEKMAsGA1UdDwQEAwIFoDAJBgNVHRMEAjAAMBEGCWCGSAGG
+EIBAQQEAwIGQDAzBglghkgBhvhCAQ0EJhYkT3BlblNTTCBHZW5lcmF0ZWQgU2Vy
dmVyIENlcnRpZmljYXRlMB0GA1UdDgQWBBTlJW0+rw3dP0zyRRk51RTbfpzArTB0
BgNVHSMEbTBrgBT0p8DMkUavZPOR8if4yLJviocyc6FIpEYwRDELMAkGA1UEBhMC
REUxDzANBgNVBAgMBkhlc3NlbjEUMBIGA1UECgwLcHJpdmFjeWlkZWExDjAMBgNV
BAMMBUNBMDAxggkA+8jrrIPNEgcwEwYDVR0lBAwwCgYIKwYBBQUHAwEwDQYJKoZI
hvcNAQELBQADggEBAKy6U9N/KyZqY8VYHN5+ac4L48aFGGvHO1NVj+sdIX2tbWzl
H93LGfyxr/LEjL9rCKKt0bEI5oBWMOJxSB5nWij0mTmB6PxKZwyBUotnW9N0ZL3E
S8I62FHAPO0nXcrgMjWjGjcEibVnSkIGcluJWPTE2Azs+VKMDmYAIPol27CfyI0i
gwsKNw9Kfo8R3qBzRt0rlEPI7BlMTAtsHskQhaJ0A0TK0M2JJ7u9OQ6nUpA9lziT
kTQIG7o5a0TidcFvXseIvn2CLO1lR2EaqeKhmN8hJuct5BdTtQbe/s7dQ7ZeddvJ
cmm5dXVowdjbvtZWann9iM2ULXpBa1/Rtu7Ll4g=
-----END CERTIFICATE-----
