Certificate:
    Data:
        Version: 3 (0x2)
        Serial Number: 268435674 (0x100000da)
    Signature Algorithm: sha256WithRSAEncryption
        Issuer: C=DE, ST=Hessen, O=privacyidea, CN=CA001
        Validity
            Not Before: Sep  7 13:35:18 2017 GMT
            Not After : Sep  7 13:35:18 2018 GMT
        Subject: OU=realm1, CN=cornelius/emailAddress=user@localhost.localdomain
        Subject Public Key Info:
            Public Key Algorithm: rsaEncryption
                Public-Key: (2048 bit)
                Modulus:
                    00:be:ad:f9:06:36:c9:4d:ed:f7:b4:f4:c8:92:75:
                    f5:e1:03:8a:a9:73:e4:8b:d7:8d:d5:5d:7d:61:14:
                    7c:d7:06:66:48:49:79:22:10:cc:d7:d0:e8:5e:7a:
                    b0:41:a7:09:c8:19:f4:20:53:37:4e:f4:84:c7:f5:
                    14:db:5c:35:34:67:d5:49:5e:d5:6b:31:9d:29:94:
                    c3:d6:6d:0e:e4:c6:c7:ba:2c:84:f0:c7:4a:a9:b8:
                    c8:fa:97:c3:e5:e8:0f:17:ff:66:fc:64:c1:86:95:
                    56:5a:38:37:c3:d2:e6:b5:28:69:08:a3:ab:e6:44:
                    7b:37:a7:74:5c:cb:65:a6:5a:e4:69:b9:b5:aa:41:
                    53:17:d9:61:b1:11:af:e5:73:88:8b:6e:c5:f2:75:
                    02:91:6a:3a:fe:71:18:eb:87:30:0b:29:29:30:da:
                    d4:ef:1a:ee:66:a5:ea:94:7b:67:0e:0b:49:a9:4e:
                    77:0b:9c:3c:a0:55:88:a4:ff:71:50:4a:c8:5e:f8:
                    97:5e:f5:20:3b:de:f6:61:cd:2c:b2:b9:83:de:e5:
                    ab:a3:69:35:0e:17:c4:d6:59:92:7a:04:ca:29:05:
                    70:2f:ad:cc:1b:05:59:69:5f:7f:a3:7f:45:ec:75:
                    f0:43:6b:37:c4:c7:72:29:63:8c:e6:d1:e8:56:bc:
                    98:31
                Exponent: 65537 (0x10001)
        X509v3 extensions:
            X509v3 Key Usage: 
                Digital Signature, Key Encipherment
            X509v3 Basic Constraints: 
                CA:FALSE
            Netscape Cert Type: 
                SSL Server
            Netscape Comment: 
                OpenSSL Generated Server Certificate
            X509v3 Subject Key Identifier: 
                D5:29:E9:D7:F9:1F:5E:B3:A0:0E:95:4B:5E:35:35:71:77:B8:67:80
            X509v3 Authority Key Identifier: 
                keyid:F4:A7:C0:CC:91:46:AF:64:F3:91:F2:27:F8:C8:B2:6F:8A:87:32:73
                DirName:/C=DE/ST=Hessen/O=privacyidea/CN=CA001
                serial:FB:C8:EB:AC:83:CD:12:07

            X509v3 Extended Key Usage: 
                TLS Web Server Authentication
    Signature Algorithm: sha256WithRSAEncryption
         53:68:ab:4e:53:b1:a0:63:a5:d1:38:f7:02:0b:37:e6:39:a0:
         1c:13:10:16:34:f3:9e:c3:29:92:2e:4c:41:4f:c3:02:b9:b7:
         7e:d7:00:2a:90:6a:06:82:eb:b1:9a:50:bf:13:6e:22:aa:cd:
         e2:77:9d:83:1e:39:da:4b:c1:23:c8:0f:92:95:24:68:c8:7a:
         0f:9a:35:78:05:10:b5:2f:92:dd:3a:cb:fa:c6:25:1e:25:ec:
         98:c9:04:93:c4:27:b4:3c:45:54:24:fc:ff:e5:ce:f3:9c:1a:
         60:fd:16:c2:74:45:20:e3:c8:d1:3a:b5:21:86:77:1a:cf:cc:
         ef:25:86:d9:1e:82:14:d9:95:95:ab:59:31:90:97:cb:ae:77:
         6e:c3:c2:32:66:6f:2b:f6:50:1a:57:2a:7e:fe:34:eb:c6:d8:
         c7:3e:37:bc:59:71:97:ce:31:3a:5a:a7:7f:bd:60:a1:7a:c0:
         36:df:d5:c2:4f:a5:24:ab:69:97:a0:1d:59:70:3a:c5:42:a7:
         03:af:4b:f6:af:4e:4d:a7:55:cc:80:8d:e2:e0:59:bd:be:4e:
         16:5a:03:99:f2:fc:37:6c:fe:b7:58:11:f5:f6:95:a1:46:fb:
         4e:d3:3f:2e:4d:a3:6c:39:1f:34:87:9e:19:8c:e4:46:a9:10:
         5e:38:16:76
-----BEGIN CERTIFICATE-----
MIIEIjCCAwqgAwIBAgIEEAAA2jANBgkqhkiG9w0BAQsFADBEMQswCQYDVQQGEwJE
RTEPMA0GA1UECAwGSGVzc2VuMRQwEgYDVQQKDAtwcml2YWN5aWRlYTEOMAwGA1UE
AwwFQ0EwMDEwHhcNMTcwOTA3MTMzNTE4WhcNMTgwOTA3MTMzNTE4WjBQMQ8wDQYD
VQQLDAZyZWFsbTExEjAQBgNVBAMMCWNvcm5lbGl1czEpMCcGCSqGSIb3DQEJARYa
dXNlckBsb2NhbGhvc3QubG9jYWxkb21haW4wggEiMA0GCSqGSIb3DQEBAQUAA4IB
DwAwggEKAoIBAQC+rfkGNslN7fe09MiSdfXhA4qpc+SL143VXX1hFHzXBmZISXki
EMzX0OheerBBpwnIGfQgUzdO9ITH9RTbXDU0Z9VJXtVrMZ0plMPWbQ7kxse6LITw
x0qpuMj6l8Pl6A8X/2b8ZMGGlVZaODfD0ua1KGkIo6vmRHs3p3Rcy2WmWuRpubWq
QVMX2WGxEa/lc4iLbsXydQKRajr+cRjrhzALKSkw2tTvGu5mpeqUe2cOC0mpTncL
nDygVYik/3FQSshe+Jde9SA73vZhzSyyuYPe5aujaTUOF8TWWZJ6BMopBXAvrcwb
BVlpX3+jf0XsdfBDazfEx3IpY4zm0ehWvJgxAgMBAAGjggEOMIIBCjALBgNVHQ8E
BAMCBaAwCQYDVR0TBAIwADARBglghkgBhvhCAQEEBAMCBkAwMwYJYIZIAYb4QgEN
BCYWJE9wZW5TU0wgR2VuZXJhdGVkIFNlcnZlciBDZXJ0aWZpY2F0ZTAdBgNVHQ4E
FgQU1Snp1/kfXrOgDpVLXjU1cXe4Z4AwdAYDVR0jBG0wa4AU9KfAzJFGr2TzkfIn
+Miyb4qHMnOhSKRGMEQxCzAJBgNVBAYTAkRFMQ8wDQYDVQQIDAZIZXNzZW4xFDAS
BgNVBAoMC3ByaXZhY3lpZGVhMQ4wDAYDVQQDDAVDQTAwMYIJAPvI66yDzRIHMBMG
A1UdJQQMMAoGCCsGAQUFBwMBMA0GCSqGSIb3DQEBCwUAA4IBAQBTaKtOU7GgY6XR
OPcCCzfmOaAcExAWNPOewymSLkxBT8MCubd+1wAqkGoGguuxmlC/E24iqs3id52D
HjnaS8EjyA+SlSRoyHoPmjV4BRC1L5LdOsv6xiUeJeyYyQSTxCe0PEVUJPz/5c7z
nBpg/RbCdEUg48jROrUhhncaz8zvJYbZHoIU2ZWVq1kxkJfLrnduw8IyZm8r9lAa
Vyp+/jTrxtjHPje8WXGXzjE6Wqd/vWChesA239XCT6Ukq2mXoB1ZcDrFQqcDr0v2
r05Np1XMgI3i4Fm9vk4WWgOZ8vw3bP63WBH19pWhRvtO0z8uTaNsOR80h54ZjORG
qRBeOBZ2
-----END CERTIFICATE-----
