Certificate:
    Data:
        Version: 3 (0x2)
        Serial Number: 268435672 (0x100000d8)
    Signature Algorithm: sha256WithRSAEncryption
        Issuer: C=DE, ST=Hessen, O=privacyidea, CN=CA001
        Validity
            Not Before: Sep  7 13:31:42 2017 GMT
            Not After : Sep 27 13:31:42 2019 GMT
        Subject: CN=Steve Test/emailAddress=steve@openssl.org
        Subject Public Key Info:
            Public Key Algorithm: rsaEncryption
                Public-Key: (2048 bit)
                Modulus:
                    00:d2:81:89:20:51:48:0f:73:f4:11:32:24:d5:1f:
                    1c:fd:5c:f5:b6:e6:c5:f0:52:81:dc:d2:af:66:4a:
                    7c:93:31:61:5c:af:d1:6d:06:70:03:60:7c:72:0c:
                    88:dd:49:cd:9e:02:6c:d2:5a:d7:53:0f:f3:da:be:
                    69:64:b5:0f:0c:00:e3:b3:50:47:a3:b3:9b:ba:13:
                    50:d6:58:5a:4b:ab:39:e0:11:ca:0a:27:67:03:78:
                    22:66:6d:92:1e:1b:5c:49:ae:e6:6b:d1:8e:3b:9d:
                    06:d3:c6:ac:4d:53:43:10:ab:e8:96:c1:87:82:97:
                    99:8f:20:d3:99:12:37:31:84:e1:8a:ff:29:03:5f:
                    22:90:3e:7f:9b:e0:20:c1:ad:dc:ae:4c:39:1a:31:
                    96:17:02:8c:b2:d9:b4:0d:20:12:9b:7d:86:54:fd:
                    33:fd:c1:2a:62:46:f8:60:96:cf:6e:01:6f:22:df:
                    13:47:e7:97:ec:05:72:23:a3:62:f8:fa:ef:ac:9c:
                    72:f0:37:cb:2f:37:cf:90:a8:27:51:86:c6:d7:78:
                    08:8f:7e:25:a2:15:70:a2:fb:1c:b6:15:5e:a0:97:
                    8b:81:4c:09:28:8a:27:3b:94:bc:71:db:5b:71:37:
                    9a:2b:16:e0:6f:b5:c9:f5:4b:4f:20:ba:65:cf:af:
                    ad:ad
                Exponent: 65537 (0x10001)
        X509v3 extensions:
            X509v3 Key Usage: 
                Digital Signature, Key Encipherment
            X509v3 Basic Constraints: 
                CA:FALSE
            Netscape Cert Type: 
                SSL Server
            Netscape Comment: 
                OpenSSL Generated Server Certificate
            X509v3 Subject Key Identifier: 
                E5:25:6D:3E:AF:0D:DD:3F:4C:F2:45:19:39:D5:14:DB:7E:9C:C0:AD
            X509v3 Authority Key Identifier: 
                keyid:F4:A7:C0:CC:91:46:AF:64:F3:91:F2:27:F8:C8:B2:6F:8A:87:32:73
                DirName:/C=DE/ST=Hessen/O=privacyidea/CN=CA001
                serial:FB:C8:EB:AC:83:CD:12:07

            X509v3 Extended Key Usage: 
                TLS Web Server Authentication
    Signature Algorithm: sha256WithRSAEncryption
         95:72:10:96:2c:a2:2f:68:aa:10:fb:dd:be:8d:7b:56:c2:41:
         f6:71:35:cf:25:0f:38:04:b5:ee:8c:b7:43:bd:fc:b0:f6:f3:
         c6:f8:38:9a:36:a8:7d:2b:ec:f8:0c:d3:7c:ea:64:e1:34:7b:
         72:4d:de:08:ac:16:2b:08:5a:d7:71:63:d6:e5:2d:5d:00:bf:
         01:2d:bd:ab:4f:d8:ea:c0:05:ad:3c:8e:92:c9:3c:97:2d:07:
         bd:05:ed:22:15:99:0c:b0:a6:9b:56:09:cc:e7:8b:ba:d2:d3:
         15:53:f8:a9:61:a3:9e:a5:28:ab:8e:6c:47:22:aa:8d:88:1a:
         35:f5:21:5f:08:ca:b7:7a:fc:47:4b:78:a9:28:c2:89:6e:e0:
         60:d1:73:f9:cf:19:1d:8b:85:15:03:4d:6a:25:61:45:ea:2c:
         a5:fe:64:50:47:7d:df:7f:ca:af:a7:ef:60:40:5e:e9:68:5c:
         49:60:0c:01:b9:9f:1c:7f:cc:91:c6:07:fc:28:0f:b1:7c:fb:
         e1:d2:dd:b1:4e:17:f5:11:17:f9:eb:a0:6c:80:7e:0a:8c:e9:
         23:36:4a:aa:e3:c9:08:41:12:b8:ab:17:c9:fd:3e:a7:0e:3f:
         69:3f:64:21:9e:65:7d:82:24:ea:cf:d5:6c:59:8c:b2:0a:6b:
         fa:fa:46:53
-----BEGIN CERTIFICATE-----
MIIECTCCAvGgAwIBAgIEEAAA2DANBgkqhkiG9w0BAQsFADBEMQswCQYDVQQGEwJE
RTEPMA0GA1UECAwGSGVzc2VuMRQwEgYDVQQKDAtwcml2YWN5aWRlYTEOMAwGA1UE
AwwFQ0EwMDEwHhcNMTcwOTA3MTMzMTQyWhcNMTkwOTI3MTMzMTQyWjA3MRMwEQYD
VQQDDApTdGV2ZSBUZXN0MSAwHgYJKoZIhvcNAQkBFhFzdGV2ZUBvcGVuc3NsLm9y
ZzCCASIwDQYJKoZIhvcNAQEBBQADggEPADCCAQoCggEBANKBiSBRSA9z9BEyJNUf
HP1c9bbmxfBSgdzSr2ZKfJMxYVyv0W0GcANgfHIMiN1JzZ4CbNJa11MP89q+aWS1
DwwA47NQR6Ozm7oTUNZYWkurOeARygonZwN4ImZtkh4bXEmu5mvRjjudBtPGrE1T
QxCr6JbBh4KXmY8g05kSNzGE4Yr/KQNfIpA+f5vgIMGt3K5MORoxlhcCjLLZtA0g
Ept9hlT9M/3BKmJG+GCWz24BbyLfE0fnl+wFciOjYvj676yccvA3yy83z5CoJ1GG
xtd4CI9+JaIVcKL7HLYVXqCXi4FMCSiKJzuUvHHbW3E3misW4G+1yfVLTyC6Zc+v
ra0CAwEAAaOCAQ4wggEKMAsGA1UdDwQEAwIFoDAJBgNVHRMEAjAAMBEGCWCGSAGG
+EIBAQQEAwIGQDAzBglghkgBhvhCAQ0EJhYkT3BlblNTTCBHZW5lcmF0ZWQgU2Vy
dmVyIENlcnRpZmljYXRlMB0GA1UdDgQWBBTlJW0+rw3dP0zyRRk51RTbfpzArTB0
BgNVHSMEbTBrgBT0p8DMkUavZPOR8if4yLJviocyc6FIpEYwRDELMAkGA1UEBhMC
REUxDzANBgNVBAgMBkhlc3NlbjEUMBIGA1UECgwLcHJpdmFjeWlkZWExDjAMBgNV
BAMMBUNBMDAxggkA+8jrrIPNEgcwEwYDVR0lBAwwCgYIKwYBBQUHAwEwDQYJKoZI
hvcNAQELBQADggEBAJVyEJYsoi9oqhD73b6Ne1bCQfZxNc8lDzgEte6Mt0O9/LD2
88b4OJo2qH0r7PgM03zqZOE0e3JN3gisFisIWtdxY9blLV0AvwEtvatP2OrABa08
jpLJPJctB70F7SIVmQywpptWCczni7rS0xVT+Klho56lKKuObEciqo2IGjX1IV8I
yrd6/EdLeKkowolu4GDRc/nPGR2LhRUDTWolYUXqLKX+ZFBHfd9/yq+n72BAXulo
XElgDAG5nxx/zJHGB/woD7F8++HS3bFOF/URF/nroGyAfgqM6SM2SqrjyQhBErir
F8n9PqcOP2k/ZCGeZX2CJOrP1WxZjLIKa/r6RlM=
-----END CERTIFICATE-----
