Certificate:
    Data:
        Version: 3 (0x2)
        Serial Number: 268435664 (0x100000d0)
    Signature Algorithm: sha256WithRSAEncryption
        Issuer: C=DE, ST=Hessen, O=privacyidea, CN=CA001
        Validity
            Not Before: Oct 25 18:59:28 2017 GMT
            Not After : Oct 25 18:59:28 2018 GMT
        Subject: C=DE, ST=Hessen, O=privacyidea, CN=requester.localdomain
        Subject Public Key Info:
            Public Key Algorithm: rsaEncryption
                Public-Key: (2048 bit)
                Modulus:
                    00:cd:be:14:4f:fa:ce:01:3f:42:22:1b:1d:9c:af:
                    dd:92:d2:7f:db:6c:b7:3e:39:43:43:6b:13:03:f1:
                    05:f4:07:74:bc:76:69:28:0b:af:19:8e:d7:fc:e3:
                    cd:c6:58:f2:ca:7f:08:6d:53:fc:07:02:44:24:c6:
                    b4:34:4c:8c:04:fe:33:0e:40:e2:20:ba:02:73:5a:
                    f7:f5:4f:63:6e:cc:c6:b6:df:54:1d:37:39:7d:51:
                    36:26:5f:bd:dc:3f:a8:8b:6b:a2:ae:b6:9d:d6:21:
                    e7:df:41:b8:7a:28:2a:68:48:ca:a8:2d:ed:e1:e9:
                    46:5e:5a:72:6d:b4:84:38:87:91:fd:94:11:0b:28:
                    84:c6:c2:2f:2a:fb:01:f9:36:7a:09:75:d1:33:88:
                    3c:73:41:5b:c8:bf:94:89:70:a1:f0:c0:b9:2e:50:
                    53:1e:b1:17:64:69:f4:2d:81:e0:a9:0d:0e:32:e9:
                    ba:55:8a:85:f1:1b:6f:49:79:b4:7f:88:c3:0d:3e:
                    54:88:9b:3d:1f:38:8c:04:f3:ee:6a:63:2b:f5:c6:
                    db:b4:83:aa:c4:78:41:3a:7d:4b:e1:c8:3e:71:ca:
                    1b:61:59:ea:c6:c4:ca:32:5e:c9:e9:bf:12:29:e6:
                    c6:c3:63:fe:a0:55:da:7a:f1:60:98:4d:26:ed:fa:
                    70:2d
                Exponent: 65537 (0x10001)
        X509v3 extensions:
            X509v3 Key Usage: 
                Digital Signature, Key Encipherment
            X509v3 Basic Constraints: 
                CA:FALSE
            Netscape Cert Type: 
                SSL Server
            Netscape Comment: 
                OpenSSL Generated Server Certificate
            X509v3 Subject Key Identifier: 
                53:3F:ED:5D:09:07:B3:65:7B:AB:45:C9:24:5B:09:77:80:0A:96:ED
            X509v3 Authority Key Identifier: 
                keyid:F4:A7:C0:CC:91:46:AF:64:F3:91:F2:27:F8:C8:B2:6F:8A:87:32:73
                DirName:/C=DE/ST=Hessen/O=privacyidea/CN=CA001
                serial:FB:C8:EB:AC:83:CD:12:07

            X509v3 Extended Key Usage: 
                TLS Web Server Authentication
    Signature Algorithm: sha256WithRSAEncryption
         14:d5:e8:f2:08:68:29:9f:9c:af:bd:59:32:d0:ee:c7:38:f3:
         a7:e4:1a:c4:86:ba:ad:27:2c:1f:87:88:d1:38:49:70:d0:a0:
         91:4b:79:ed:d2:d2:2e:2c:03:93:50:9c:9c:31:a2:43:d5:b3:
         aa:1c:da:92:09:08:2b:c4:3f:d9:6e:5e:6b:f7:74:b6:d2:9c:
         32:0f:b8:83:60:06:cd:f0:c8:fb:b6:3c:51:57:3c:0c:53:5a:
         19:d7:0a:ba:17:bb:81:a6:db:a9:dc:88:8c:90:b6:a5:6d:e3:
         0b:0e:49:86:68:6d:04:98:4e:c4:e1:e4:db:e6:da:36:69:e9:
         20:20:cb:7b:85:f2:f4:dc:09:12:8b:74:ab:a4:dc:86:9f:fe:
         23:42:82:a3:58:13:ee:9c:1a:0e:ed:01:5b:f7:be:08:95:e2:
         f6:ef:b9:88:62:4b:de:50:a0:82:58:b5:29:8f:da:63:d5:ae:
         bd:61:54:fc:8c:4b:21:df:8e:f9:7b:70:e8:40:dc:34:94:0b:
         36:af:5b:ca:fb:b1:20:69:60:d2:6b:f9:3e:f4:51:d7:24:d5:
         0a:a7:35:05:90:3c:7b:5b:9b:e3:86:eb:19:99:8b:d7:0e:56:
         7d:68:d1:57:62:14:89:8a:ff:8e:95:86:86:e1:59:b5:9b:b9:
         7b:86:1b:a2
-----BEGIN CERTIFICATE-----
MIIEJjCCAw6gAwIBAgIEEAAA0DANBgkqhkiG9w0BAQsFADBEMQswCQYDVQQGEwJE
RTEPMA0GA1UECAwGSGVzc2VuMRQwEgYDVQQKDAtwcml2YWN5aWRlYTEOMAwGA1UE
AwwFQ0EwMDEwHhcNMTcxMDI1MTg1OTI4WhcNMTgxMDI1MTg1OTI4WjBUMQswCQYD
VQQGEwJERTEPMA0GA1UECAwGSGVzc2VuMRQwEgYDVQQKDAtwcml2YWN5aWRlYTEe
MBwGA1UEAwwVcmVxdWVzdGVyLmxvY2FsZG9tYWluMIIBIjANBgkqhkiG9w0BAQEF
AAOCAQ8AMIIBCgKCAQEAzb4UT/rOAT9CIhsdnK/dktJ/22y3PjlDQ2sTA/EF9Ad0
vHZpKAuvGY7X/OPNxljyyn8IbVP8BwJEJMa0NEyMBP4zDkDiILoCc1r39U9jbszG
tt9UHTc5fVE2Jl+93D+oi2uirrad1iHn30G4eigqaEjKqC3t4elGXlpybbSEOIeR
/ZQRCyiExsIvKvsB+TZ6CXXRM4g8c0FbyL+UiXCh8MC5LlBTHrEXZGn0LYHgqQ0O
Mum6VYqF8RtvSXm0f4jDDT5UiJs9HziMBPPuamMr9cbbtIOqxHhBOn1L4cg+ccob
YVnqxsTKMl7J6b8SKebGw2P+oFXaevFgmE0m7fpwLQIDAQABo4IBDjCCAQowCwYD
VR0PBAQDAgWgMAkGA1UdEwQCMAAwEQYJYIZIAYb4QgEBBAQDAgZAMDMGCWCGSAGG
+EIBDQQmFiRPcGVuU1NMIEdlbmVyYXRlZCBTZXJ2ZXIgQ2VydGlmaWNhdGUwHQYD
VR0OBBYEFFM/7V0JB7Nle6tFySRbCXeACpbtMHQGA1UdIwRtMGuAFPSnwMyRRq9k
85HyJ/jIsm+KhzJzoUikRjBEMQswCQYDVQQGEwJERTEPMA0GA1UECAwGSGVzc2Vu
MRQwEgYDVQQKDAtwcml2YWN5aWRlYTEOMAwGA1UEAwwFQ0EwMDGCCQD7yOusg80S
BzATBgNVHSUEDDAKBggrBgEFBQcDATANBgkqhkiG9w0BAQsFAAOCAQEAFNXo8gho
KZ+cr71ZMtDuxzjzp+QaxIa6rScsH4eI0ThJcNCgkUt57dLSLiwDk1CcnDGiQ9Wz
qhzakgkIK8Q/2W5ea/d0ttKcMg+4g2AGzfDI+7Y8UVc8DFNaGdcKuhe7gabbqdyI
jJC2pW3jCw5JhmhtBJhOxOHk2+baNmnpICDLe4Xy9NwJEot0q6Tchp/+I0KCo1gT
7pwaDu0BW/e+CJXi9u+5iGJL3lCggli1KY/aY9WuvWFU/IxLId+O+Xtw6EDcNJQL
Nq9byvuxIGlg0mv5PvRR1yTVCqc1BZA8e1ub44brGZmL1w5WfWjRV2IUiYr/jpWG
huFZtZu5e4Ybog==
-----END CERTIFICATE-----
