Certificate:
    Data:
        Version: 3 (0x2)
        Serial Number: 268435670 (0x100000d6)
    Signature Algorithm: sha256WithRSAEncryption
        Issuer: C=DE, ST=Hessen, O=privacyidea, CN=CA001
        Validity
            Not Before: Oct 25 19:05:02 2017 GMT
            Not After : Oct 25 19:05:02 2018 GMT
        Subject: OU=realm1, CN=cornelius/emailAddress=user@localhost.localdomain
        Subject Public Key Info:
            Public Key Algorithm: rsaEncryption
                Public-Key: (2048 bit)
                Modulus:
                    00:b6:cb:61:87:f8:56:5b:c9:ac:17:f6:95:9a:14:
                    14:34:06:c2:cb:a6:fb:b1:7f:24:7e:57:a2:84:87:
                    bb:c8:c3:e6:69:a7:64:c6:45:75:74:aa:7a:d0:bf:
                    98:a3:bc:e6:91:bb:9b:22:0e:fd:83:27:dd:21:0f:
                    e0:a4:f9:6c:01:5d:ae:67:04:ec:df:fc:b7:0c:14:
                    8e:63:63:20:6b:71:2c:9b:fd:2e:d9:82:2f:e0:54:
                    f2:c1:2e:d0:dc:d6:05:e2:7c:50:0f:56:ec:d9:ff:
                    71:f4:aa:84:34:c1:e9:43:ff:07:0a:d6:88:43:fe:
                    c3:e2:95:74:8d:28:18:38:72:64:e1:67:49:70:f2:
                    72:84:4d:55:09:18:28:56:94:1b:fe:0a:f9:8b:36:
                    52:e9:fe:20:63:a3:e2:6c:d5:50:9c:37:a5:fa:a2:
                    3a:25:b4:7c:28:23:2b:d1:a7:12:41:d0:ec:c5:39:
                    10:5b:2f:a3:3a:36:91:42:e0:e0:ab:9b:c7:21:a0:
                    c3:ff:76:65:21:26:2c:12:e8:c8:07:0c:00:84:49:
                    75:1d:dd:4a:95:1e:b0:94:32:38:e9:f5:48:3d:d0:
                    ad:87:9c:d5:6e:42:f4:53:64:4f:f2:e7:d6:cc:a9:
                    8e:d2:16:5d:40:b2:e1:d4:12:11:a6:a1:ab:1d:eb:
                    8d:b1
                Exponent: 65537 (0x10001)
        X509v3 extensions:
            X509v3 Key Usage: 
                Digital Signature, Key Encipherment
            X509v3 Basic Constraints: 
                CA:FALSE
            Netscape Cert Type: 
                SSL Server
            Netscape Comment: 
                OpenSSL Generated Server Certificate
            X509v3 Subject Key Identifier: 
                E3:DF:5F:14:2F:E2:9F:3D:1E:80:BF:ED:B9:4C:01:4D:3D:71:ED:9E
            X509v3 Authority Key Identifier: 
                keyid:F4:A7:C0:CC:91:46:AF:64:F3:91:F2:27:F8:C8:B2:6F:8A:87:32:73
                DirName:/C=DE/ST=Hessen/O=privacyidea/CN=CA001
                serial:FB:C8:EB:AC:83:CD:12:07

            X509v3 Extended Key Usage: 
                TLS Web Server Authentication
    Signature Algorithm: sha256WithRSAEncryption
         22:54:56:9b:f8:d6:3d:24:7f:d9:d0:42:ae:6d:de:bf:84:39:
         b6:e9:b6:1c:a6:d9:68:88:86:49:47:7c:dc:1a:a6:e8:20:0f:
         2d:2f:90:90:72:c8:72:17:cd:87:8e:08:2d:0b:ea:e6:ce:30:
         bc:3e:a2:e5:00:7f:ca:be:ff:c6:65:82:5c:21:ff:9d:5e:94:
         7d:c5:b3:06:3e:e0:12:cf:a9:58:c7:6d:c8:c7:6a:05:e3:55:
         d9:0d:d9:80:fd:70:d8:76:b9:59:ac:ce:40:f6:b4:1c:73:e8:
         1b:d6:d4:49:52:26:97:22:8b:f3:74:3c:aa:fa:fd:6d:7d:08:
         85:3c:ca:19:2a:7b:aa:2a:e0:7c:b5:3b:45:6e:e8:ad:54:ad:
         48:ef:3a:95:bc:fd:25:7e:dd:28:55:18:61:c6:e8:94:47:c7:
         b7:b1:5d:2c:1e:fc:d4:bd:e5:f4:5b:fc:3d:d9:aa:77:36:aa:
         ad:ac:d7:1f:8f:23:9e:40:41:a7:87:75:4f:0f:28:17:bb:c8:
         c3:63:75:a8:af:b1:9f:ef:b7:3e:58:d8:bf:db:48:19:fc:2e:
         0d:74:e6:15:6f:d0:dd:40:a2:3d:b0:a9:3d:33:b7:b6:ac:18:
         68:ef:bb:f4:2d:49:33:27:d7:57:90:9a:e9:a7:d9:b8:25:c3:
         6f:47:82:9c
-----BEGIN CERTIFICATE-----
MIIEIjCCAwqgAwIBAgIEEAAA1jANBgkqhkiG9w0BAQsFADBEMQswCQYDVQQGEwJE
RTEPMA0GA1UECAwGSGVzc2VuMRQwEgYDVQQKDAtwcml2YWN5aWRlYTEOMAwGA1UE
AwwFQ0EwMDEwHhcNMTcxMDI1MTkwNTAyWhcNMTgxMDI1MTkwNTAyWjBQMQ8wDQYD
VQQLDAZyZWFsbTExEjAQBgNVBAMMCWNvcm5lbGl1czEpMCcGCSqGSIb3DQEJARYa
dXNlckBsb2NhbGhvc3QubG9jYWxkb21haW4wggEiMA0GCSqGSIb3DQEBAQUAA4IB
DwAwggEKAoIBAQC2y2GH+FZbyawX9pWaFBQ0BsLLpvuxfyR+V6KEh7vIw+Zpp2TG
RXV0qnrQv5ijvOaRu5siDv2DJ90hD+Ck+WwBXa5nBOzf/LcMFI5jYyBrcSyb/S7Z
gi/gVPLBLtDc1gXifFAPVuzZ/3H0qoQ0welD/wcK1ohD/sPilXSNKBg4cmThZ0lw
8nKETVUJGChWlBv+CvmLNlLp/iBjo+Js1VCcN6X6ojoltHwoIyvRpxJB0OzFORBb
L6M6NpFC4OCrm8choMP/dmUhJiwS6MgHDACESXUd3UqVHrCUMjjp9Ug90K2HnNVu
QvRTZE/y59bMqY7SFl1AsuHUEhGmoasd642xAgMBAAGjggEOMIIBCjALBgNVHQ8E
BAMCBaAwCQYDVR0TBAIwADARBglghkgBhvhCAQEEBAMCBkAwMwYJYIZIAYb4QgEN
BCYWJE9wZW5TU0wgR2VuZXJhdGVkIFNlcnZlciBDZXJ0aWZpY2F0ZTAdBgNVHQ4E
FgQU499fFC/inz0egL/tuUwBTT1x7Z4wdAYDVR0jBG0wa4AU9KfAzJFGr2TzkfIn
+Miyb4qHMnOhSKRGMEQxCzAJBgNVBAYTAkRFMQ8wDQYDVQQIDAZIZXNzZW4xFDAS
BgNVBAoMC3ByaXZhY3lpZGVhMQ4wDAYDVQQDDAVDQTAwMYIJAPvI66yDzRIHMBMG
A1UdJQQMMAoGCCsGAQUFBwMBMA0GCSqGSIb3DQEBCwUAA4IBAQAiVFab+NY9JH/Z
0EKubd6/hDm26bYcptloiIZJR3zcGqboIA8tL5CQcshyF82HjggtC+rmzjC8PqLl
AH/Kvv/GZYJcIf+dXpR9xbMGPuASz6lYx23Ix2oF41XZDdmA/XDYdrlZrM5A9rQc
c+gb1tRJUiaXIovzdDyq+v1tfQiFPMoZKnuqKuB8tTtFbuitVK1I7zqVvP0lft0o
VRhhxuiUR8e3sV0sHvzUveX0W/w92ap3NqqtrNcfjyOeQEGnh3VPDygXu8jDY3Wo
r7Gf77c+WNi/20gZ/C4NdOYVb9DdQKI9sKk9M7e2rBho77v0LUkzJ9dXkJrpp9m4
JcNvR4Kc
-----END CERTIFICATE-----
