Certificate:
    Data:
        Version: 3 (0x2)
        Serial Number: 268435666 (0x100000d2)
    Signature Algorithm: sha256WithRSAEncryption
        Issuer: C=DE, ST=Hessen, O=privacyidea, CN=CA001
        Validity
            Not Before: Oct 25 19:01:20 2017 GMT
            Not After : Oct 25 19:01:20 2018 GMT
        Subject: C=DE, ST=Hessen, O=privacyidea, CN=usercert
        Subject Public Key Info:
            Public Key Algorithm: rsaEncryption
                Public-Key: (2048 bit)
                Modulus:
                    00:dc:2f:d1:5f:29:97:d4:7c:c3:53:c8:30:bd:4b:
                    67:70:2c:24:6b:b8:5e:eb:21:7a:48:12:56:7c:81:
                    5c:48:75:b6:68:eb:f6:f2:98:4e:50:51:d1:7f:6c:
                    73:f3:0a:a7:ae:be:48:5e:e5:d6:e1:d9:2a:7c:32:
                    6e:4e:fd:08:f6:5a:54:49:23:73:c3:b9:07:18:d1:
                    ef:b3:ac:f8:8a:dc:94:96:a4:90:3a:8e:74:df:e6:
                    0d:37:1b:bd:5b:b7:25:1a:56:39:da:6f:91:aa:5e:
                    1c:74:f3:f9:7c:14:01:83:12:65:76:c7:bb:fe:36:
                    5b:95:e9:72:65:83:ed:3e:98:30:71:fa:87:dd:a3:
                    36:5a:30:03:2e:26:e0:61:d1:bf:02:3f:b6:06:1f:
                    4a:89:28:1c:5c:a2:ff:4e:be:94:e6:8c:e0:da:82:
                    f1:9d:29:32:48:30:73:b4:04:f6:42:1e:be:f7:e2:
                    32:32:27:3c:9d:89:2f:70:3e:85:9a:6f:5c:c5:09:
                    c0:8c:32:2f:72:22:c9:d2:95:1f:b6:ac:72:60:72:
                    b7:82:4d:6b:ce:5b:e3:00:d0:d2:2f:58:c6:e0:10:
                    e5:51:ca:4d:3b:2e:e6:7e:ab:84:d6:56:f1:93:35:
                    a0:93:64:26:81:75:2f:91:b5:16:06:38:0b:db:cc:
                    2d:07
                Exponent: 65537 (0x10001)
        X509v3 extensions:
            X509v3 Key Usage: 
                Digital Signature, Key Encipherment
            X509v3 Basic Constraints: 
                CA:FALSE
            Netscape Cert Type: 
                SSL Server
            Netscape Comment: 
                OpenSSL Generated Server Certificate
            X509v3 Subject Key Identifier: 
                FC:14:D1:F0:4B:8D:00:90:F2:F5:B8:71:9E:4E:97:C3:92:54:AD:0B
            X509v3 Authority Key Identifier: 
                keyid:F4:A7:C0:CC:91:46:AF:64:F3:91:F2:27:F8:C8:B2:6F:8A:87:32:73
                DirName:/C=DE/ST=Hessen/O=privacyidea/CN=CA001
                serial:FB:C8:EB:AC:83:CD:12:07

            X509v3 Extended Key Usage: 
                TLS Web Server Authentication
    Signature Algorithm: sha256WithRSAEncryption
         84:55:25:d6:97:de:f3:cc:69:e5:54:92:fb:03:e0:4b:7e:b3:
         ee:9b:e5:b8:f1:22:de:84:fd:94:14:7e:db:78:2b:01:20:53:
         6e:e8:e8:e1:00:a7:1b:83:1f:62:2d:f7:68:ef:22:98:bd:ff:
         34:be:5f:78:68:85:3c:b2:cc:bc:cc:9c:2b:c5:76:16:f8:fa:
         bd:c2:df:66:16:69:e0:3e:c9:99:f2:a5:0d:c9:b7:0e:9f:83:
         79:9b:4d:c0:a0:6d:5a:a2:52:d7:67:2c:03:36:1a:6e:d6:bd:
         cc:8c:8d:8c:77:74:2d:fa:2e:8c:7e:1f:c8:45:bf:b2:71:0b:
         ae:ed:7c:8f:2b:c6:67:98:dd:aa:f8:17:d2:c5:3c:9c:81:d2:
         a7:10:4b:91:3c:34:0c:58:1d:e4:4a:ea:0b:34:b7:ab:55:95:
         be:a5:41:50:5d:15:1c:22:4c:ba:f5:b5:f3:36:c6:c0:05:77:
         3e:f5:fc:d2:89:b1:ab:bc:d6:c3:3d:f4:67:03:93:af:3b:01:
         0f:7f:31:08:44:06:0d:01:21:8f:73:5e:55:83:cb:17:ee:77:
         20:07:b1:d2:e9:cb:e0:3f:c5:04:8c:da:9b:61:61:8f:ce:bf:
         24:78:6b:59:7c:d3:11:e1:9f:bd:9f:af:77:23:1d:00:ce:94:
         dd:d6:92:70
-----BEGIN CERTIFICATE-----
MIIEGTCCAwGgAwIBAgIEEAAA0jANBgkqhkiG9w0BAQsFADBEMQswCQYDVQQGEwJE
RTEPMA0GA1UECAwGSGVzc2VuMRQwEgYDVQQKDAtwcml2YWN5aWRlYTEOMAwGA1UE
AwwFQ0EwMDEwHhcNMTcxMDI1MTkwMTIwWhcNMTgxMDI1MTkwMTIwWjBHMQswCQYD
VQQGEwJERTEPMA0GA1UECAwGSGVzc2VuMRQwEgYDVQQKDAtwcml2YWN5aWRlYTER
MA8GA1UEAwwIdXNlcmNlcnQwggEiMA0GCSqGSIb3DQEBAQUAA4IBDwAwggEKAoIB
AQDcL9FfKZfUfMNTyDC9S2dwLCRruF7rIXpIElZ8gVxIdbZo6/bymE5QUdF/bHPz
Cqeuvkhe5dbh2Sp8Mm5O/Qj2WlRJI3PDuQcY0e+zrPiK3JSWpJA6jnTf5g03G71b
tyUaVjnab5GqXhx08/l8FAGDEmV2x7v+NluV6XJlg+0+mDBx+ofdozZaMAMuJuBh
0b8CP7YGH0qJKBxcov9OvpTmjODagvGdKTJIMHO0BPZCHr734jIyJzydiS9wPoWa
b1zFCcCMMi9yIsnSlR+2rHJgcreCTWvOW+MA0NIvWMbgEOVRyk07LuZ+q4TWVvGT
NaCTZCaBdS+RtRYGOAvbzC0HAgMBAAGjggEOMIIBCjALBgNVHQ8EBAMCBaAwCQYD
VR0TBAIwADARBglghkgBhvhCAQEEBAMCBkAwMwYJYIZIAYb4QgENBCYWJE9wZW5T
U0wgR2VuZXJhdGVkIFNlcnZlciBDZXJ0aWZpY2F0ZTAdBgNVHQ4EFgQU/BTR8EuN
AJDy9bhxnk6Xw5JUrQswdAYDVR0jBG0wa4AU9KfAzJFGr2TzkfIn+Miyb4qHMnOh
SKRGMEQxCzAJBgNVBAYTAkRFMQ8wDQYDVQQIDAZIZXNzZW4xFDASBgNVBAoMC3By
aXZhY3lpZGVhMQ4wDAYDVQQDDAVDQTAwMYIJAPvI66yDzRIHMBMGA1UdJQQMMAoG
CCsGAQUFBwMBMA0GCSqGSIb3DQEBCwUAA4IBAQCEVSXWl97zzGnlVJL7A+BLfrPu
m+W48SLehP2UFH7beCsBIFNu6OjhAKcbgx9iLfdo7yKYvf80vl94aIU8ssy8zJwr
xXYW+Pq9wt9mFmngPsmZ8qUNybcOn4N5m03AoG1aolLXZywDNhpu1r3MjI2Md3Qt
+i6Mfh/IRb+ycQuu7XyPK8ZnmN2q+BfSxTycgdKnEEuRPDQMWB3kSuoLNLerVZW+
pUFQXRUcIky69bXzNsbABXc+9fzSibGrvNbDPfRnA5OvOwEPfzEIRAYNASGPc15V
g8sX7ncgB7HS6cvgP8UEjNqbYWGPzr8keGtZfNMR4Z+9n693Ix0AzpTd1pJw
-----END CERTIFICATE-----
