Certificate:
    Data:
        Version: 3 (0x2)
        Serial Number: 268435669 (0x100000d5)
    Signature Algorithm: sha256WithRSAEncryption
        Issuer: C=DE, ST=Hessen, O=privacyidea, CN=CA001
        Validity
            Not Before: Oct 25 19:05:01 2017 GMT
            Not After : Oct 25 19:05:01 2018 GMT
        Subject: C=DE, ST=Hessen, O=privacyidea, CN=requester.localdomain
        Subject Public Key Info:
            Public Key Algorithm: rsaEncryption
                Public-Key: (2048 bit)
                Modulus:
                    00:cd:be:14:4f:fa:ce:01:3f:42:22:1b:1d:9c:af:
                    dd:92:d2:7f:db:6c:b7:3e:39:43:43:6b:13:03:f1:
                    05:f4:07:74:bc:76:69:28:0b:af:19:8e:d7:fc:e3:
                    cd:c6:58:f2:ca:7f:08:6d:53:fc:07:02:44:24:c6:
                    b4:34:4c:8c:04:fe:33:0e:40:e2:20:ba:02:73:5a:
                    f7:f5:4f:63:6e:cc:c6:b6:df:54:1d:37:39:7d:51:
                    36:26:5f:bd:dc:3f:a8:8b:6b:a2:ae:b6:9d:d6:21:
                    e7:df:41:b8:7a:28:2a:68:48:ca:a8:2d:ed:e1:e9:
                    46:5e:5a:72:6d:b4:84:38:87:91:fd:94:11:0b:28:
                    84:c6:c2:2f:2a:fb:01:f9:36:7a:09:75:d1:33:88:
                    3c:73:41:5b:c8:bf:94:89:70:a1:f0:c0:b9:2e:50:
                    53:1e:b1:17:64:69:f4:2d:81:e0:a9:0d:0e:32:e9:
                    ba:55:8a:85:f1:1b:6f:49:79:b4:7f:88:c3:0d:3e:
                    54:88:9b:3d:1f:38:8c:04:f3:ee:6a:63:2b:f5:c6:
                    db:b4:83:aa:c4:78:41:3a:7d:4b:e1:c8:3e:71:ca:
                    1b:61:59:ea:c6:c4:ca:32:5e:c9:e9:bf:12:29:e6:
                    c6:c3:63:fe:a0:55:da:7a:f1:60:98:4d:26:ed:fa:
                    70:2d
                Exponent: 65537 (0x10001)
        X509v3 extensions:
            X509v3 Key Usage: 
                Digital Signature, Key Encipherment
            X509v3 Basic Constraints: 
                CA:FALSE
            Netscape Cert Type: 
                SSL Server
            Netscape Comment: 
                OpenSSL Generated Server Certificate
            X509v3 Subject Key Identifier: 
                53:3F:ED:5D:09:07:B3:65:7B:AB:45:C9:24:5B:09:77:80:0A:96:ED
            X509v3 Authority Key Identifier: 
                keyid:F4:A7:C0:CC:91:46:AF:64:F3:91:F2:27:F8:C8:B2:6F:8A:87:32:73
                DirName:/C=DE/ST=Hessen/O=privacyidea/CN=CA001
                serial:FB:C8:EB:AC:83:CD:12:07

            X509v3 Extended Key Usage: 
                TLS Web Server Authentication
    Signature Algorithm: sha256WithRSAEncryption
         11:6d:3a:33:59:48:66:5d:4c:57:70:eb:06:64:a9:d9:da:05:
         62:79:ae:17:27:3d:b5:dc:f4:32:ed:37:e4:03:6f:d2:be:60:
         2c:e5:b9:66:3b:08:ac:ea:d1:25:d8:0c:7c:14:a3:de:48:6f:
         b2:71:9f:1a:7d:52:e5:21:0c:93:e6:83:f6:70:d4:4a:c2:38:
         fc:06:6f:23:16:1a:77:9b:c3:a7:a2:f2:88:7d:5a:af:21:3c:
         e4:2c:76:02:ff:97:a9:42:25:4f:c4:ae:ae:a9:66:6e:d1:63:
         88:6c:44:b4:7f:40:31:60:c2:9f:d0:a8:68:bd:14:c2:ce:d0:
         15:e3:23:ee:41:33:63:dd:5b:e7:1a:52:30:13:30:be:82:93:
         08:40:75:fa:ba:2f:68:28:ad:44:12:ce:ba:b2:7e:57:09:61:
         4b:9c:bf:19:e3:6b:74:04:99:45:18:dc:f6:d9:21:fb:aa:3f:
         ed:27:14:c8:60:03:9f:18:86:9f:82:2c:f0:ec:9d:1c:d0:07:
         53:b5:7a:e7:0c:da:0c:68:8c:2b:6e:70:56:99:11:6b:4b:2f:
         44:fd:5c:79:1b:23:5f:ed:dc:07:83:ce:71:94:3d:d1:5d:e6:
         47:ed:aa:50:a6:75:85:19:fe:b2:c0:5b:0e:cc:9f:f0:f5:48:
         bf:9a:c3:d5
-----BEGIN CERTIFICATE-----
MIIEJjCCAw6gAwIBAgIEEAAA1TANBgkqhkiG9w0BAQsFADBEMQswCQYDVQQGEwJE
RTEPMA0GA1UECAwGSGVzc2VuMRQwEgYDVQQKDAtwcml2YWN5aWRlYTEOMAwGA1UE
AwwFQ0EwMDEwHhcNMTcxMDI1MTkwNTAxWhcNMTgxMDI1MTkwNTAxWjBUMQswCQYD
VQQGEwJERTEPMA0GA1UECAwGSGVzc2VuMRQwEgYDVQQKDAtwcml2YWN5aWRlYTEe
MBwGA1UEAwwVcmVxdWVzdGVyLmxvY2FsZG9tYWluMIIBIjANBgkqhkiG9w0BAQEF
AAOCAQ8AMIIBCgKCAQEAzb4UT/rOAT9CIhsdnK/dktJ/22y3PjlDQ2sTA/EF9Ad0
vHZpKAuvGY7X/OPNxljyyn8IbVP8BwJEJMa0NEyMBP4zDkDiILoCc1r39U9jbszG
tt9UHTc5fVE2Jl+93D+oi2uirrad1iHn30G4eigqaEjKqC3t4elGXlpybbSEOIeR
/ZQRCyiExsIvKvsB+TZ6CXXRM4g8c0FbyL+UiXCh8MC5LlBTHrEXZGn0LYHgqQ0O
Mum6VYqF8RtvSXm0f4jDDT5UiJs9HziMBPPuamMr9cbbtIOqxHhBOn1L4cg+ccob
YVnqxsTKMl7J6b8SKebGw2P+oFXaevFgmE0m7fpwLQIDAQABo4IBDjCCAQowCwYD
VR0PBAQDAgWgMAkGA1UdEwQCMAAwEQYJYIZIAYb4QgEBBAQDAgZAMDMGCWCGSAGG
+EIBDQQmFiRPcGVuU1NMIEdlbmVyYXRlZCBTZXJ2ZXIgQ2VydGlmaWNhdGUwHQYD
VR0OBBYEFFM/7V0JB7Nle6tFySRbCXeACpbtMHQGA1UdIwRtMGuAFPSnwMyRRq9k
85HyJ/jIsm+KhzJzoUikRjBEMQswCQYDVQQGEwJERTEPMA0GA1UECAwGSGVzc2Vu
MRQwEgYDVQQKDAtwcml2YWN5aWRlYTEOMAwGA1UEAwwFQ0EwMDGCCQD7yOusg80S
BzATBgNVHSUEDDAKBggrBgEFBQcDATANBgkqhkiG9w0BAQsFAAOCAQEAEW06M1lI
Zl1MV3DrBmSp2doFYnmuFyc9tdz0Mu035ANv0r5gLOW5ZjsIrOrRJdgMfBSj3khv
snGfGn1S5SEMk+aD9nDUSsI4/AZvIxYad5vDp6LyiH1aryE85Cx2Av+XqUIlT8Su
rqlmbtFjiGxEtH9AMWDCn9CoaL0Uws7QFeMj7kEzY91b5xpSMBMwvoKTCEB1+rov
aCitRBLOurJ+VwlhS5y/GeNrdASZRRjc9tkh+6o/7ScUyGADnxiGn4Is8OydHNAH
U7V65wzaDGiMK25wVpkRa0svRP1ceRsjX+3cB4POcZQ90V3mR+2qUKZ1hRn+ssBb
Dsyf8PVIv5rD1Q==
-----END CERTIFICATE-----
